EXPORTS
	?instance@MpEngineFactory@@SAPAV1@XZ @ 1 NONAME ; class MpEngineFactory * MpEngineFactory::instance(void)
	?saveToCurrentPlaylist@MpEngine@@QAEXAAV?$QList@H@@PAVMpMpxCollectionData@@@Z @ 2 NONAME ; void MpEngine::saveToCurrentPlaylist(class QList<int> &, class MpMpxCollectionData *)
	?handleDeleteStarted@MpEngine@@QAEXW4TCollectionContext@@H@Z @ 3 NONAME ; void MpEngine::handleDeleteStarted(enum TCollectionContext, int)
	?collectionData@MpEngine@@QAEPAVMpMpxCollectionData@@XZ @ 4 NONAME ; class MpMpxCollectionData * MpEngine::collectionData(void)
	?createPlaylist@MpEngine@@QAEXAAVQString@@AAV?$QList@H@@PAVMpMpxCollectionData@@@Z @ 5 NONAME ; void MpEngine::createPlaylist(class QString &, class QList<int> &, class MpMpxCollectionData *)
	?collectionPlaylistOpened@MpEngine@@IAEXXZ @ 6 NONAME ; void MpEngine::collectionPlaylistOpened(void)
	?renamePlaylist@MpEngine@@QAEXAAVQString@@H@Z @ 7 NONAME ; void MpEngine::renamePlaylist(class QString &, int)
	?scanCountChanged@MpSongScanner@@IAEXH@Z @ 8 NONAME ; void MpSongScanner::scanCountChanged(int)
	?handleUsbMtpEndEvent@MpEngine@@AAEXXZ @ 9 NONAME ; void MpEngine::handleUsbMtpEndEvent(void)
	?setBalance@MpEngine@@QAEXH@Z @ 10 NONAME ; void MpEngine::setBalance(int)
	?playAlbumSongs@MpEngine@@QAEXHHPAVMpMpxCollectionData@@@Z @ 11 NONAME ; void MpEngine::playAlbumSongs(int, int, class MpMpxCollectionData *)
	?setShuffle@MpEngine@@QAEX_N@Z @ 12 NONAME ; void MpEngine::setShuffle(bool)
	?openIsolatedCollection@MpEngine@@QAEXW4TCollectionContext@@@Z @ 13 NONAME ; void MpEngine::openIsolatedCollection(enum TCollectionContext)
	?usbSynchronizationFinished@MpEngine@@IAEXXZ @ 14 NONAME ; void MpEngine::usbSynchronizationFinished(void)
	?qt_metacall@MpEngine@@UAEHW4Call@QMetaObject@@HPAPAX@Z @ 15 NONAME ; int MpEngine::qt_metacall(enum QMetaObject::Call, int, void * *)
	?playlistSaved@MpEngine@@IAEX_N@Z @ 16 NONAME ; void MpEngine::playlistSaved(bool)
	?playbackData@MpEngine@@QAEPAVMpPlaybackData@@XZ @ 17 NONAME ; class MpPlaybackData * MpEngine::playbackData(void)
	?stop@MpEngine@@QAEXXZ @ 18 NONAME ; void MpEngine::stop(void)
	?retrieveSong@MpEngine@@QAEXXZ @ 19 NONAME ; void MpEngine::retrieveSong(void)
	?scan@MpSongScanner@@QAEX_N@Z @ 20 NONAME ; void MpSongScanner::scan(bool)
	?openCollection@MpEngine@@QAEXW4TCollectionContext@@@Z @ 21 NONAME ; void MpEngine::openCollection(enum TCollectionContext)
	??0MpEngineFactory@@AAE@XZ @ 22 NONAME ; MpEngineFactory::MpEngineFactory(void)
	?libraryRefreshNeeded@MpEngine@@IAEXXZ @ 23 NONAME ; void MpEngine::libraryRefreshNeeded(void)
	?handleDiskEvent@MpSongScanner@@QAEXW4MpxDiskEvents@@@Z @ 24 NONAME ; void MpSongScanner::handleDiskEvent(enum MpxDiskEvents)
	?tr@MpEngine@@SA?AVQString@@PBD0H@Z @ 25 NONAME ; class QString MpEngine::tr(char const *, char const *, int)
	?trUtf8@MpEngine@@SA?AVQString@@PBD0@Z @ 26 NONAME ; class QString MpEngine::trUtf8(char const *, char const *)
	?presetNames@MpEngine@@QAE?AVQStringList@@XZ @ 27 NONAME ; class QStringList MpEngine::presetNames(void)
	?previewItem@MpEngine@@QAEXH@Z @ 28 NONAME ; void MpEngine::previewItem(int)
	??1MpSongScanner@@UAE@XZ @ 29 NONAME ; MpSongScanner::~MpSongScanner(void)
	?loudness@MpEngine@@QAE_NXZ @ 30 NONAME ; bool MpEngine::loudness(void)
	?deleteSongs@MpEngine@@QAEXAAV?$QList@H@@@Z @ 31 NONAME ; void MpEngine::deleteSongs(class QList<int> &)
	?releaseIsolatedCollection@MpEngine@@QAEXXZ @ 32 NONAME ; void MpEngine::releaseIsolatedCollection(void)
	?deleteStarted@MpEngine@@IAEXW4TCollectionContext@@H@Z @ 33 NONAME ; void MpEngine::deleteStarted(enum TCollectionContext, int)
	?stopSeeking@MpEngine@@QAEXXZ @ 34 NONAME ; void MpEngine::stopSeeking(void)
	?initialize@MpEngine@@AAEXVTUid@@W4EngineMode@1@@Z @ 35 NONAME ; void MpEngine::initialize(class TUid, enum MpEngine::EngineMode)
	?tr@MpEngine@@SA?AVQString@@PBD0@Z @ 36 NONAME ; class QString MpEngine::tr(char const *, char const *)
	?disableEqualizer@MpEngine@@QAEXXZ @ 37 NONAME ; void MpEngine::disableEqualizer(void)
	?getStaticMetaObject@MpEngine@@SAABUQMetaObject@@XZ @ 38 NONAME ; struct QMetaObject const & MpEngine::getStaticMetaObject(void)
	?qt_metacast@MpEngineFactory@@UAEPAXPBD@Z @ 39 NONAME ; void * MpEngineFactory::qt_metacast(char const *)
	?libraryUpdated@MpEngine@@IAEXXZ @ 40 NONAME ; void MpEngine::libraryUpdated(void)
	??0MpSongScanner@@QAE@PAVMpMpxHarvesterFrameworkWrapper@@PAVQObject@@@Z @ 41 NONAME ; MpSongScanner::MpSongScanner(class MpMpxHarvesterFrameworkWrapper *, class QObject *)
	?checkForSystemEvents@MpEngine@@QAEXXZ @ 42 NONAME ; void MpEngine::checkForSystemEvents(void)
	?applyPreset@MpEngine@@QAEXH@Z @ 43 NONAME ; void MpEngine::applyPreset(int)
	?trUtf8@MpEngineFactory@@SA?AVQString@@PBD0H@Z @ 44 NONAME ; class QString MpEngineFactory::trUtf8(char const *, char const *, int)
	?staticMetaObject@MpEngine@@2UQMetaObject@@B @ 45 NONAME ; struct QMetaObject const MpEngine::staticMetaObject
	?scanStarted@MpSongScanner@@IAEXXZ @ 46 NONAME ; void MpSongScanner::scanStarted(void)
	?unableToCotinueDueUSB@MpEngine@@IAEXXZ @ 47 NONAME ; void MpEngine::unableToCotinueDueUSB(void)
	?openCollectionItem@MpEngine@@QAEXH@Z @ 48 NONAME ; void MpEngine::openCollectionItem(int)
	?handleScanStarted@MpEngine@@QAEXXZ @ 49 NONAME ; void MpEngine::handleScanStarted(void)
	?back@MpEngine@@QAEXXZ @ 50 NONAME ; void MpEngine::back(void)
	?tr@MpSongScanner@@SA?AVQString@@PBD0H@Z @ 51 NONAME ; class QString MpSongScanner::tr(char const *, char const *, int)
	?songScanner@MpEngine@@QAEPAVMpSongScanner@@XZ @ 52 NONAME ; class MpSongScanner * MpEngine::songScanner(void)
	?handleUsbMassStorageStartEvent@MpEngine@@AAEXXZ @ 53 NONAME ; void MpEngine::handleUsbMassStorageStartEvent(void)
	?saveActivityData@MpEngine@@QAEXAAVQByteArray@@@Z @ 54 NONAME ; void MpEngine::saveActivityData(class QByteArray &)
	?handleDeleteEnded@MpEngine@@QAEX_N@Z @ 55 NONAME ; void MpEngine::handleDeleteEnded(bool)
	?handleDiskEvent@MpEngine@@QAEXW4MpxDiskEvents@@@Z @ 56 NONAME ; void MpEngine::handleDiskEvent(enum MpxDiskEvents)
	?verifyUsbBlocking@MpEngine@@QAE_N_N@Z @ 57 NONAME ; bool MpEngine::verifyUsbBlocking(bool)
	?usbSynchronizationStarted@MpEngine@@IAEXXZ @ 58 NONAME ; void MpEngine::usbSynchronizationStarted(void)
	?handleUsbMassStorageEndEvent@MpEngine@@AAEXXZ @ 59 NONAME ; void MpEngine::handleUsbMassStorageEndEvent(void)
	?getStaticMetaObject@MpSongScanner@@SAABUQMetaObject@@XZ @ 60 NONAME ; struct QMetaObject const & MpSongScanner::getStaticMetaObject(void)
	?getStaticMetaObject@MpEngineFactory@@SAABUQMetaObject@@XZ @ 61 NONAME ; struct QMetaObject const & MpEngineFactory::getStaticMetaObject(void)
	??0MpEngine@@AAE@XZ @ 62 NONAME ; MpEngine::MpEngine(void)
	?isolatedCollectionOpened@MpEngine@@IAEXPAVMpMpxCollectionData@@@Z @ 63 NONAME ; void MpEngine::isolatedCollectionOpened(class MpMpxCollectionData *)
	?aboutToAddSongs@MpEngine@@IAEXH@Z @ 64 NONAME ; void MpEngine::aboutToAddSongs(int)
	??1MpEngine@@UAE@XZ @ 65 NONAME ; MpEngine::~MpEngine(void)
	?changeUsbBlockingState@MpEngine@@AAEXW4UsbBlockingState@1@@Z @ 66 NONAME ; void MpEngine::changeUsbBlockingState(enum MpEngine::UsbBlockingState)
	?metaObject@MpEngine@@UBEPBUQMetaObject@@XZ @ 67 NONAME ; struct QMetaObject const * MpEngine::metaObject(void) const
	??_EMpSongScanner@@UAE@I@Z @ 68 NONAME ; MpSongScanner::~MpSongScanner(unsigned int)
	?createIsolatedEngine@MpEngineFactory@@SAPAVMpEngine@@W4EngineMode@2@@Z @ 69 NONAME ; class MpEngine * MpEngineFactory::createIsolatedEngine(enum MpEngine::EngineMode)
	?equalizerReady@MpEngine@@IAEXXZ @ 70 NONAME ; void MpEngine::equalizerReady(void)
	?findAlbumSongs@MpEngine@@QAEXH@Z @ 71 NONAME ; void MpEngine::findAlbumSongs(int)
	?setPosition@MpEngine@@QAEXH@Z @ 72 NONAME ; void MpEngine::setPosition(int)
	?metaObject@MpEngineFactory@@UBEPBUQMetaObject@@XZ @ 73 NONAME ; struct QMetaObject const * MpEngineFactory::metaObject(void) const
	?handleEqualizerReady@MpEngine@@QAEXXZ @ 74 NONAME ; void MpEngine::handleEqualizerReady(void)
	?tr@MpSongScanner@@SA?AVQString@@PBD0@Z @ 75 NONAME ; class QString MpSongScanner::tr(char const *, char const *)
	??_EMpEngineFactory@@UAE@I@Z @ 76 NONAME ; MpEngineFactory::~MpEngineFactory(unsigned int)
	?skipForward@MpEngine@@QAEXXZ @ 77 NONAME ; void MpEngine::skipForward(void)
	?songData@MpEngine@@QAEPAVMpSongData@@XZ @ 78 NONAME ; class MpSongData * MpEngine::songData(void)
	?trUtf8@MpSongScanner@@SA?AVQString@@PBD0H@Z @ 79 NONAME ; class QString MpSongScanner::trUtf8(char const *, char const *, int)
	?close@MpEngineFactory@@SAXXZ @ 80 NONAME ; void MpEngineFactory::close(void)
	?libraryAboutToUpdate@MpEngine@@IAEXXZ @ 81 NONAME ; void MpEngine::libraryAboutToUpdate(void)
	?reopenCollection@MpEngine@@QAEXXZ @ 82 NONAME ; void MpEngine::reopenCollection(void)
	?trUtf8@MpEngine@@SA?AVQString@@PBD0H@Z @ 83 NONAME ; class QString MpEngine::trUtf8(char const *, char const *, int)
	?songsDeleted@MpEngine@@IAEX_N@Z @ 84 NONAME ; void MpEngine::songsDeleted(bool)
	?refreshLibrary@MpEngine@@QAEX_N@Z @ 85 NONAME ; void MpEngine::refreshLibrary(bool)
	?qt_metacast@MpEngine@@UAEPAXPBD@Z @ 86 NONAME ; void * MpEngine::qt_metacast(char const *)
	?startSeekForward@MpEngine@@QAEXXZ @ 87 NONAME ; void MpEngine::startSeekForward(void)
	?saveToPlaylist@MpEngine@@QAEXHAAV?$QList@H@@@Z @ 88 NONAME ; void MpEngine::saveToPlaylist(int, class QList<int> &)
	?qt_metacall@MpEngineFactory@@UAEHW4Call@QMetaObject@@HPAPAX@Z @ 89 NONAME ; int MpEngineFactory::qt_metacall(enum QMetaObject::Call, int, void * *)
	?qt_metacall@MpSongScanner@@UAEHW4Call@QMetaObject@@HPAPAX@Z @ 90 NONAME ; int MpSongScanner::qt_metacall(enum QMetaObject::Call, int, void * *)
	?tr@MpEngineFactory@@SA?AVQString@@PBD0H@Z @ 91 NONAME ; class QString MpEngineFactory::tr(char const *, char const *, int)
	?findPlaylists@MpEngine@@QAEXAAVQStringList@@@Z @ 92 NONAME ; void MpEngine::findPlaylists(class QStringList &)
	?isAutomaticScan@MpSongScanner@@QAE_NXZ @ 93 NONAME ; bool MpSongScanner::isAutomaticScan(void)
	??1MpEngineFactory@@UAE@XZ @ 94 NONAME ; MpEngineFactory::~MpEngineFactory(void)
	?staticMetaObject@MpEngineFactory@@2UQMetaObject@@B @ 95 NONAME ; struct QMetaObject const MpEngineFactory::staticMetaObject
	?playEmbedded@MpEngine@@QAEXVQString@@@Z @ 96 NONAME ; void MpEngine::playEmbedded(class QString)
	?shuffleAll@MpEngine@@QAEXXZ @ 97 NONAME ; void MpEngine::shuffleAll(void)
	?metaObject@MpSongScanner@@UBEPBUQMetaObject@@XZ @ 98 NONAME ; struct QMetaObject const * MpSongScanner::metaObject(void) const
	?renamePlaylist@MpEngine@@QAEXAAVQString@@@Z @ 99 NONAME ; void MpEngine::renamePlaylist(class QString &)
	?setRepeat@MpEngine@@QAEX_N@Z @ 100 NONAME ; void MpEngine::setRepeat(bool)
	?cancelCollectionRequest@MpEngine@@QAEXXZ @ 101 NONAME ; void MpEngine::cancelCollectionRequest(void)
	?trUtf8@MpEngineFactory@@SA?AVQString@@PBD0@Z @ 102 NONAME ; class QString MpEngineFactory::trUtf8(char const *, char const *)
	?containerContentsChanged@MpEngine@@IAEXXZ @ 103 NONAME ; void MpEngine::containerContentsChanged(void)
	?playPause@MpEngine@@QAEXXZ @ 104 NONAME ; void MpEngine::playPause(void)
	?playlistsRenamed@MpEngine@@IAEX_N@Z @ 105 NONAME ; void MpEngine::playlistsRenamed(bool)
	?startSeekBackward@MpEngine@@QAEXXZ @ 106 NONAME ; void MpEngine::startSeekBackward(void)
	?tr@MpEngineFactory@@SA?AVQString@@PBD0@Z @ 107 NONAME ; class QString MpEngineFactory::tr(char const *, char const *)
	?playEmbedded@MpEngine@@QAEXABVXQSharableFile@@@Z @ 108 NONAME ; void MpEngine::playEmbedded(class XQSharableFile const &)
	?handleUsbMtpStartEvent@MpEngine@@AAEXXZ @ 109 NONAME ; void MpEngine::handleUsbMtpStartEvent(void)
	?cancelScan@MpSongScanner@@QAEXXZ @ 110 NONAME ; void MpSongScanner::cancelScan(void)
	?trUtf8@MpSongScanner@@SA?AVQString@@PBD0@Z @ 111 NONAME ; class QString MpSongScanner::trUtf8(char const *, char const *)
	?activePreset@MpEngine@@QAEHXZ @ 112 NONAME ; int MpEngine::activePreset(void)
	?handleUsbEvent@MpEngine@@QAEXW4MpxUsbEvents@@@Z @ 113 NONAME ; void MpEngine::handleUsbEvent(enum MpxUsbEvents)
	?loadActivityData@MpEngine@@QAEXABVQByteArray@@@Z @ 114 NONAME ; void MpEngine::loadActivityData(class QByteArray const &)
	?sharedEngine@MpEngineFactory@@SAPAVMpEngine@@XZ @ 115 NONAME ; class MpEngine * MpEngineFactory::sharedEngine(void)
	?balance@MpEngine@@QAEHXZ @ 116 NONAME ; int MpEngine::balance(void)
	?createSharedEngine@MpEngineFactory@@SAPAVMpEngine@@VTUid@@W4EngineMode@2@@Z @ 117 NONAME ; class MpEngine * MpEngineFactory::createSharedEngine(class TUid, enum MpEngine::EngineMode)
	?handleUsbMtpNotActive@MpEngine@@AAEXXZ @ 118 NONAME ; void MpEngine::handleUsbMtpNotActive(void)
	?restorePathFailed@MpEngine@@IAEXXZ @ 119 NONAME ; void MpEngine::restorePathFailed(void)
	?usbBlocked@MpEngine@@IAEX_N@Z @ 120 NONAME ; void MpEngine::usbBlocked(bool)
	?handleScanEnded@MpSongScanner@@QAEXHH@Z @ 121 NONAME ; void MpSongScanner::handleScanEnded(int, int)
	?staticMetaObject@MpSongScanner@@2UQMetaObject@@B @ 122 NONAME ; struct QMetaObject const MpSongScanner::staticMetaObject
	?handleScanEnded@MpEngine@@QAEXHH@Z @ 123 NONAME ; void MpEngine::handleScanEnded(int, int)
	??_EMpEngine@@UAE@I@Z @ 124 NONAME ; MpEngine::~MpEngine(unsigned int)
	?skipBackward@MpEngine@@QAEXXZ @ 125 NONAME ; void MpEngine::skipBackward(void)
	?qt_metacast@MpSongScanner@@UAEPAXPBD@Z @ 126 NONAME ; void * MpSongScanner::qt_metacast(char const *)
	?reorderPlaylist@MpEngine@@QAEXHHHH@Z @ 127 NONAME ; void MpEngine::reorderPlaylist(int, int, int, int)
	?scanFinished@MpSongScanner@@IAEXHH@Z @ 128 NONAME ; void MpSongScanner::scanFinished(int, int)
	?setLoudness@MpEngine@@QAEX_N@Z @ 129 NONAME ; void MpEngine::setLoudness(bool)

