EXPORTS
	_ZN12MPXTlsHelper10LaunchModeEv @ 1 NONAME
	_ZN12MPXTlsHelper11InitializeLEv @ 2 NONAME
	_ZN12MPXTlsHelper11SetFilePathERK7TDesC16 @ 3 NONAME
	_ZN12MPXTlsHelper11SetHostUidLERK4TUid @ 4 NONAME
	_ZN12MPXTlsHelper11SetNeedSaveEi @ 5 NONAME
	_ZN12MPXTlsHelper12SetAllowMoveEi @ 6 NONAME
	_ZN12MPXTlsHelper12UninitializeEv @ 7 NONAME
	_ZN12MPXTlsHelper14SetLaunchModeLE14TMPXLaunchMode @ 8 NONAME
	_ZN12MPXTlsHelper7HostUidEv @ 9 NONAME
	_ZN12MPXTlsHelper8FilePathEv @ 10 NONAME
	_ZN12MPXTlsHelper8NeedSaveEv @ 11 NONAME
	_ZN12MPXTlsHelper9AllowMoveEv @ 12 NONAME
	_ZN14CMPXSaveHelper19StartCopyOperationLER5RFileRK7TDesC16ii @ 13 NONAME
	_ZN14CMPXSaveHelper19StartCopyOperationLERK7TDesC16S2_i @ 14 NONAME
	_ZN14CMPXSaveHelper4NewLEP22MMPXSaveHelperObserverP16MFileManObserver @ 15 NONAME
	_ZN14CMPXSaveHelperD0Ev @ 16 NONAME
	_ZN14CMPXSaveHelperD1Ev @ 17 NONAME
	_ZN14CMPXSaveHelperD2Ev @ 18 NONAME
	_ZN16CMPXAlbumArtUtil13CancelRequestEv @ 19 NONAME
	_ZN16CMPXAlbumArtUtil16ExtractAlbumArtLERK9CMPXMediaR24MMPXAlbumArtUtilObserverRK5TSizei12TDisplayMode @ 20 NONAME
	_ZN16CMPXAlbumArtUtil4NewLEv @ 21 NONAME
	_ZN16CMPXAlbumArtUtilD0Ev @ 22 NONAME
	_ZN16CMPXAlbumArtUtilD1Ev @ 23 NONAME
	_ZN16CMPXAlbumArtUtilD2Ev @ 24 NONAME
	_ZN18CMPXCommonUiHelper12HandleErrorLEiPK9CMPXMediaP5RFile @ 25 NONAME
	_ZN18CMPXCommonUiHelper13ShowWaitNoteLER7TDesC16iiP23MProgressDialogCallbacki @ 26 NONAME
	_ZN18CMPXCommonUiHelper14DefaultDriveLCEv @ 27 NONAME
	_ZN18CMPXCommonUiHelper14FindPlaylistsLEv @ 28 NONAME
	_ZN18CMPXCommonUiHelper14GenerateTitleLE19TMPXGeneralCategoryRK7TDesC16 @ 29 NONAME
	_ZN18CMPXCommonUiHelper14IsHostBrowserLEv @ 30 NONAME
	_ZN18CMPXCommonUiHelper14MMCDriveNumberEv @ 31 NONAME
	_ZN18CMPXCommonUiHelper15CreatePlaylistLERK9CMPXMediaP19MMPXCHelperObserverP23MProgressDialogCallback @ 32 NONAME
	_ZN18CMPXCommonUiHelper15UnitConversionLExi @ 33 NONAME
	_ZN18CMPXCommonUiHelper16AvailableDriveLCEi @ 34 NONAME
	_ZN18CMPXCommonUiHelper16DismissWaitNoteLEv @ 35 NONAME
	_ZN18CMPXCommonUiHelper16DisplayInfoNoteLERK7TDesC16 @ 36 NONAME
	_ZN18CMPXCommonUiHelper16DisplayInfoNoteLEi @ 37 NONAME
	_ZN18CMPXCommonUiHelper16IsHostMessagingLEv @ 38 NONAME
	_ZN18CMPXCommonUiHelper17ExitOptionHiddenLEv @ 39 NONAME
	_ZN18CMPXCommonUiHelper17StandAloneModePIdEv @ 40 NONAME
	_ZN18CMPXCommonUiHelper19AddToSavedPlaylistLERK9CMPXMediaS2_P19MMPXCHelperObserverP23MProgressDialogCallback @ 41 NONAME
	_ZN18CMPXCommonUiHelper19DisplayConfirmNoteLERK7TDesC16 @ 42 NONAME
	_ZN18CMPXCommonUiHelper19DisplayConfirmNoteLEi @ 43 NONAME
	_ZN18CMPXCommonUiHelper19DoSetAsRingingToneLERK9CMPXMediaii @ 44 NONAME
	_ZN18CMPXCommonUiHelper19LaunchRenameDialogLERK7TDesC16R6TDes16S2_ @ 45 NONAME
	_ZN18CMPXCommonUiHelper20DisplayableDurationLExNS_20TMPXDuratDisplayModeE @ 46 NONAME
	_ZN18CMPXCommonUiHelper20IsHostPodcastingAppLEv @ 47 NONAME
	_ZN18CMPXCommonUiHelper20SetStandAloneModePIdEx @ 48 NONAME
	_ZN18CMPXCommonUiHelper21IsProfileOfflineModeLEv @ 49 NONAME
	_ZN18CMPXCommonUiHelper21SetMiddleSoftKeyIconLER24CEikButtonGroupContainerP10CFbsBitmapS3_ @ 50 NONAME
	_ZN18CMPXCommonUiHelper22SetMiddleSoftKeyLabelLER24CEikButtonGroupContainerii @ 51 NONAME
	_ZN18CMPXCommonUiHelper23IsForegroundApplicationEi @ 52 NONAME
	_ZN18CMPXCommonUiHelper23IsHostMessagingBrowserLEv @ 53 NONAME
	_ZN18CMPXCommonUiHelper24RemoveMiddleSoftKeyLabelER24CEikButtonGroupContainer @ 54 NONAME
	_ZN18CMPXCommonUiHelper25CancelCollectionOperationEv @ 55 NONAME
	_ZN18CMPXCommonUiHelper26DisplayableDurationInTextLEx @ 56 NONAME
	_ZN18CMPXCommonUiHelper4NewLEP21MMPXCollectionUtility @ 57 NONAME
	_ZN23CMPXLbxExtendedFeatures17SpeedNaviUpdatingEi @ 58 NONAME
	_ZN23CMPXLbxExtendedFeatures18EnableSpeedScrollLEi @ 59 NONAME
	_ZN23CMPXLbxExtendedFeatures18HandleLbxKeyEventLERK9TKeyEvent10TEventCode @ 60 NONAME
	_ZN23CMPXLbxExtendedFeatures4NewLEP15CEikTextListBoxi @ 61 NONAME
	_ZN23CMPXLbxExtendedFeaturesD0Ev @ 62 NONAME
	_ZN23CMPXLbxExtendedFeaturesD1Ev @ 63 NONAME
	_ZN23CMPXLbxExtendedFeaturesD2Ev @ 64 NONAME
	_ZTI13CMPXImageUtil @ 65 NONAME
	_ZTI16CMPXAlbumArtUtil @ 66 NONAME
	_ZTV13CMPXImageUtil @ 67 NONAME
	_ZTV16CMPXAlbumArtUtil @ 68 NONAME
	_ZN18CMPXCommonUiHelper15IsHostCalendarLEv @ 69 NONAME

