EXPORTS
	_ZN18MpNowPlayingWidget11qt_metacallEN11QMetaObject4CallEiPPv @ 1 NONAME
	_ZN18MpNowPlayingWidget11qt_metacastEPKc @ 2 NONAME
	_ZN18MpNowPlayingWidget15mousePressEventEP24QGraphicsSceneMouseEvent @ 3 NONAME
	_ZN18MpNowPlayingWidget16staticMetaObjectE @ 4 NONAME DATA 16
	_ZN18MpNowPlayingWidget17mouseReleaseEventEP24QGraphicsSceneMouseEvent @ 5 NONAME
	_ZN18MpNowPlayingWidget19getStaticMetaObjectEv @ 6 NONAME
	_ZN18MpNowPlayingWidget25playbackAttachmentChangedEb @ 7 NONAME
	_ZN18MpNowPlayingWidget5paintEP8QPainterPK24QStyleOptionGraphicsItemP7QWidget @ 8 NONAME
	_ZN18MpNowPlayingWidget7clickedEv @ 9 NONAME
	_ZN18MpNowPlayingWidgetC1ElP13QGraphicsItem @ 10 NONAME
	_ZN18MpNowPlayingWidgetC2ElP13QGraphicsItem @ 11 NONAME
	_ZN18MpNowPlayingWidgetD0Ev @ 12 NONAME
	_ZN18MpNowPlayingWidgetD1Ev @ 13 NONAME
	_ZN18MpNowPlayingWidgetD2Ev @ 14 NONAME
	_ZNK18MpNowPlayingWidget10metaObjectEv @ 15 NONAME
	_ZTI18MpNowPlayingWidget @ 16 NONAME
	_ZTV18MpNowPlayingWidget @ 17 NONAME
	_ZThn16_N18MpNowPlayingWidgetD0Ev @ 18 NONAME
	_ZThn16_N18MpNowPlayingWidgetD1Ev @ 19 NONAME
	_ZThn8_N18MpNowPlayingWidget15mousePressEventEP24QGraphicsSceneMouseEvent @ 20 NONAME
	_ZThn8_N18MpNowPlayingWidget17mouseReleaseEventEP24QGraphicsSceneMouseEvent @ 21 NONAME
	_ZThn8_N18MpNowPlayingWidget5paintEP8QPainterPK24QStyleOptionGraphicsItemP7QWidget @ 22 NONAME
	_ZThn8_N18MpNowPlayingWidgetD0Ev @ 23 NONAME
	_ZThn8_N18MpNowPlayingWidgetD1Ev @ 24 NONAME
	_ZN18MpNowPlayingWidget10setEnabledEb @ 25 NONAME

