EXPORTS
	_ZN10MpSongData10setBitRateEi @ 1 NONAME
	_ZN10MpSongData10setCommentERK7QString @ 2 NONAME
	_ZN10MpSongData11qt_metacallEN11QMetaObject4CallEiPPv @ 3 NONAME
	_ZN10MpSongData11qt_metacastEPKc @ 4 NONAME
	_ZN10MpSongData11setComposerERK7QString @ 5 NONAME
	_ZN10MpSongData11setDurationEi @ 6 NONAME
	_ZN10MpSongData11setFileNameERK7QString @ 7 NONAME
	_ZN10MpSongData11setMimeTypeERK7QString @ 8 NONAME
	_ZN10MpSongData11setModifiedERK7QString @ 9 NONAME
	_ZN10MpSongData11setMusicURLERK7QString @ 10 NONAME
	_ZN10MpSongData12setCopyrightERK7QString @ 11 NONAME
	_ZN10MpSongData13albumArtReadyEv @ 12 NONAME
	_ZN10MpSongData13setAlbumTrackERK7QString @ 13 NONAME
	_ZN10MpSongData13setSampleRateEi @ 14 NONAME
	_ZN10MpSongData14setAlbumArtUriERK7QString @ 15 NONAME
	_ZN10MpSongData14thumbnailReadyERK7QPixmapPvii @ 16 NONAME
	_ZN10MpSongData15setDrmProtectedEb @ 17 NONAME
	_ZN10MpSongData16staticMetaObjectE @ 18 NONAME DATA 16
	_ZN10MpSongData18commitPlaybackInfoEv @ 19 NONAME
	_ZN10MpSongData19getStaticMetaObjectEv @ 20 NONAME
	_ZN10MpSongData19playbackInfoChangedEv @ 21 NONAME
	_ZN10MpSongData20commitSongDetailInfoEv @ 22 NONAME
	_ZN10MpSongData21songDetailInfoChangedEv @ 23 NONAME
	_ZN10MpSongData7setLinkERK7QString @ 24 NONAME
	_ZN10MpSongData7setSizeEi @ 25 NONAME
	_ZN10MpSongData7setYearEi @ 26 NONAME
	_ZN10MpSongData8setAlbumERK7QString @ 27 NONAME
	_ZN10MpSongData8setGenreERK7QString @ 28 NONAME
	_ZN10MpSongData8setTitleERK7QString @ 29 NONAME
	_ZN10MpSongData9setArtistERK7QString @ 30 NONAME
	_ZN10MpSongDataC1EP7QObject @ 31 NONAME
	_ZN10MpSongDataC2EP7QObject @ 32 NONAME
	_ZN10MpSongDataD0Ev @ 33 NONAME
	_ZN10MpSongDataD1Ev @ 34 NONAME
	_ZN10MpSongDataD2Ev @ 35 NONAME
	_ZN14MpPlaybackData10setAlbumIdEi @ 36 NONAME
	_ZN14MpPlaybackData11qt_metacallEN11QMetaObject4CallEiPPv @ 37 NONAME
	_ZN14MpPlaybackData11qt_metacastEPKc @ 38 NONAME
	_ZN14MpPlaybackData11setDurationEi @ 39 NONAME
	_ZN14MpPlaybackData11setPositionEi @ 40 NONAME
	_ZN14MpPlaybackData12setRealAudioEb @ 41 NONAME
	_ZN14MpPlaybackData13albumArtReadyEv @ 42 NONAME
	_ZN14MpPlaybackData14setAlbumArtUriERK7QString @ 43 NONAME
	_ZN14MpPlaybackData14thumbnailReadyERK7QPixmapPvii @ 44 NONAME
	_ZN14MpPlaybackData15durationChangedEv @ 45 NONAME
	_ZN14MpPlaybackData15positionChangedEv @ 46 NONAME
	_ZN14MpPlaybackData16setPlaybackStateENS_15SimplifiedStateE @ 47 NONAME
	_ZN14MpPlaybackData16staticMetaObjectE @ 48 NONAME DATA 16
	_ZN14MpPlaybackData18commitPlaybackInfoEv @ 49 NONAME
	_ZN14MpPlaybackData19getStaticMetaObjectEv @ 50 NONAME
	_ZN14MpPlaybackData19playbackInfoChangedEv @ 51 NONAME
	_ZN14MpPlaybackData20playbackStateChangedEv @ 52 NONAME
	_ZN14MpPlaybackData2idEv @ 53 NONAME
	_ZN14MpPlaybackData5setIdEi @ 54 NONAME
	_ZN14MpPlaybackData6setUriERK7QString @ 55 NONAME
	_ZN14MpPlaybackData7albumIdEv @ 56 NONAME
	_ZN14MpPlaybackData8setAlbumERK7QString @ 57 NONAME
	_ZN14MpPlaybackData8setTitleERK7QString @ 58 NONAME
	_ZN14MpPlaybackData9realAudioEv @ 59 NONAME
	_ZN14MpPlaybackData9setArtistERK7QString @ 60 NONAME
	_ZN14MpPlaybackDataC1EP7QObject @ 61 NONAME
	_ZN14MpPlaybackDataC2EP7QObject @ 62 NONAME
	_ZN14MpPlaybackDataD0Ev @ 63 NONAME
	_ZN14MpPlaybackDataD1Ev @ 64 NONAME
	_ZN14MpPlaybackDataD2Ev @ 65 NONAME
	_ZN19MpMpxCollectionData10removeItemEi @ 66 NONAME
	_ZN19MpMpxCollectionData10setContextE18TCollectionContext @ 67 NONAME
	_ZN19MpMpxCollectionData11containerIdEv @ 68 NONAME
	_ZN19MpMpxCollectionData11dataChangedEv @ 69 NONAME
	_ZN19MpMpxCollectionData11qt_metacallEN11QMetaObject4CallEiPPv @ 70 NONAME
	_ZN19MpMpxCollectionData11qt_metacastEPKc @ 71 NONAME
	_ZN19MpMpxCollectionData11setMpxMediaERK9CMPXMediab @ 72 NONAME
	_ZN19MpMpxCollectionData14containerMediaEv @ 73 NONAME
	_ZN19MpMpxCollectionData14contextChangedE18TCollectionContext @ 74 NONAME
	_ZN19MpMpxCollectionData14isAutoPlaylistEi @ 75 NONAME
	_ZN19MpMpxCollectionData14isAutoPlaylistEv @ 76 NONAME
	_ZN19MpMpxCollectionData14testCachedItemEi @ 77 NONAME
	_ZN19MpMpxCollectionData15setAlbumContentERK9CMPXMedia @ 78 NONAME
	_ZN19MpMpxCollectionData15setCurrentAlbumEi @ 79 NONAME
	_ZN19MpMpxCollectionData16albumDataChangedEv @ 80 NONAME
	_ZN19MpMpxCollectionData16insertCachedItemEi @ 81 NONAME
	_ZN19MpMpxCollectionData16staticMetaObjectE @ 82 NONAME DATA 16
	_ZN19MpMpxCollectionData17refreshAlbumSongsEv @ 83 NONAME
	_ZN19MpMpxCollectionData19getStaticMetaObjectEv @ 84 NONAME
	_ZN19MpMpxCollectionData6itemIdEi @ 85 NONAME
	_ZN19MpMpxCollectionData9itemCountEi @ 86 NONAME
	_ZN19MpMpxCollectionData9itemIndexEi @ 87 NONAME
	_ZN19MpMpxCollectionDataC1EP7QObject @ 88 NONAME
	_ZN19MpMpxCollectionDataC2EP7QObject @ 89 NONAME
	_ZN19MpMpxCollectionDataD0Ev @ 90 NONAME
	_ZN19MpMpxCollectionDataD1Ev @ 91 NONAME
	_ZN19MpMpxCollectionDataD2Ev @ 92 NONAME
	_ZN21MpCollectionDataModel10reloadDataEv @ 93 NONAME
	_ZN21MpCollectionDataModel10removeRowsEiiRK11QModelIndex @ 94 NONAME
	_ZN21MpCollectionDataModel10setContextE18TCollectionContext @ 95 NONAME
	_ZN21MpCollectionDataModel11qt_metacallEN11QMetaObject4CallEiPPv @ 96 NONAME
	_ZN21MpCollectionDataModel11qt_metacastEPKc @ 97 NONAME
	_ZN21MpCollectionDataModel12dataReloadedEv @ 98 NONAME
	_ZN21MpCollectionDataModel12dropMimeDataEPK9QMimeDataN2Qt10DropActionEiiRK11QModelIndex @ 99 NONAME
	_ZN21MpCollectionDataModel12orderChangedEiiii @ 100 NONAME
	_ZN21MpCollectionDataModel12refreshModelEv @ 101 NONAME
	_ZN21MpCollectionDataModel14collectionDataEv @ 102 NONAME
	_ZN21MpCollectionDataModel14updateAlbumArtEi @ 103 NONAME
	_ZN21MpCollectionDataModel16staticMetaObjectE @ 104 NONAME DATA 16
	_ZN21MpCollectionDataModel19getStaticMetaObjectEv @ 105 NONAME
	_ZN21MpCollectionDataModelC1EP19MpMpxCollectionDataP7QObject @ 106 NONAME
	_ZN21MpCollectionDataModelC2EP19MpMpxCollectionDataP7QObject @ 107 NONAME
	_ZN21MpCollectionDataModelD0Ev @ 108 NONAME
	_ZN21MpCollectionDataModelD1Ev @ 109 NONAME
	_ZN21MpCollectionDataModelD2Ev @ 110 NONAME
	_ZN30MpCollectionTBoneListDataModel11qt_metacallEN11QMetaObject4CallEiPPv @ 111 NONAME
	_ZN30MpCollectionTBoneListDataModel11qt_metacastEPKc @ 112 NONAME
	_ZN30MpCollectionTBoneListDataModel12refreshModelEv @ 113 NONAME
	_ZN30MpCollectionTBoneListDataModel16albumDataChangedEv @ 114 NONAME
	_ZN30MpCollectionTBoneListDataModel16staticMetaObjectE @ 115 NONAME DATA 16
	_ZN30MpCollectionTBoneListDataModel19getStaticMetaObjectEv @ 116 NONAME
	_ZN30MpCollectionTBoneListDataModelC1EP19MpMpxCollectionDataP7QObject @ 117 NONAME
	_ZN30MpCollectionTBoneListDataModelC2EP19MpMpxCollectionDataP7QObject @ 118 NONAME
	_ZN30MpCollectionTBoneListDataModelD0Ev @ 119 NONAME
	_ZN30MpCollectionTBoneListDataModelD1Ev @ 120 NONAME
	_ZN30MpCollectionTBoneListDataModelD2Ev @ 121 NONAME
	_ZNK10MpSongData10albumTrackEv @ 122 NONAME
	_ZNK10MpSongData10metaObjectEv @ 123 NONAME
	_ZNK10MpSongData10sampleRateEv @ 124 NONAME
	_ZNK10MpSongData14albumArtBase64Ev @ 125 NONAME
	_ZNK10MpSongData14isDrmProtectedEv @ 126 NONAME
	_ZNK10MpSongData4linkEv @ 127 NONAME
	_ZNK10MpSongData4sizeEv @ 128 NONAME
	_ZNK10MpSongData4yearEv @ 129 NONAME
	_ZNK10MpSongData5albumEv @ 130 NONAME
	_ZNK10MpSongData5genreEv @ 131 NONAME
	_ZNK10MpSongData5titleEv @ 132 NONAME
	_ZNK10MpSongData6artistEv @ 133 NONAME
	_ZNK10MpSongData7bitRateEv @ 134 NONAME
	_ZNK10MpSongData7commentEv @ 135 NONAME
	_ZNK10MpSongData8albumArtER6HbIcon @ 136 NONAME
	_ZNK10MpSongData8composerEv @ 137 NONAME
	_ZNK10MpSongData8durationEv @ 138 NONAME
	_ZNK10MpSongData8fileNameEv @ 139 NONAME
	_ZNK10MpSongData8mimeTypeEv @ 140 NONAME
	_ZNK10MpSongData8modifiedEv @ 141 NONAME
	_ZNK10MpSongData8musicURLEv @ 142 NONAME
	_ZNK10MpSongData9copyrightEv @ 143 NONAME
	_ZNK14MpPlaybackData10metaObjectEv @ 144 NONAME
	_ZNK14MpPlaybackData13playbackStateEv @ 145 NONAME
	_ZNK14MpPlaybackData3uriEv @ 146 NONAME
	_ZNK14MpPlaybackData5albumEv @ 147 NONAME
	_ZNK14MpPlaybackData5titleEv @ 148 NONAME
	_ZNK14MpPlaybackData6artistEv @ 149 NONAME
	_ZNK14MpPlaybackData8albumArtER6HbIcon @ 150 NONAME
	_ZNK14MpPlaybackData8durationEv @ 151 NONAME
	_ZNK14MpPlaybackData8positionEv @ 152 NONAME
	_ZNK19MpMpxCollectionData10metaObjectEv @ 153 NONAME
	_ZNK19MpMpxCollectionData13albumSongDataEiNS_8DataTypeE @ 154 NONAME
	_ZNK19MpMpxCollectionData15albumSongsCountEv @ 155 NONAME
	_ZNK19MpMpxCollectionData15collectionTitleEv @ 156 NONAME
	_ZNK19MpMpxCollectionData17currentAlbumIndexEv @ 157 NONAME
	_ZNK19MpMpxCollectionData5countEv @ 158 NONAME
	_ZNK19MpMpxCollectionData7contextEv @ 159 NONAME
	_ZNK19MpMpxCollectionData8itemDataEiNS_8DataTypeE @ 160 NONAME
	_ZNK21MpCollectionDataModel10metaObjectEv @ 161 NONAME
	_ZNK21MpCollectionDataModel20supportedDropActionsEv @ 162 NONAME
	_ZNK21MpCollectionDataModel4dataERK11QModelIndexi @ 163 NONAME
	_ZNK21MpCollectionDataModel8mimeDataERK5QListI11QModelIndexE @ 164 NONAME
	_ZNK21MpCollectionDataModel8rowCountERK11QModelIndex @ 165 NONAME
	_ZNK21MpCollectionDataModel9mimeTypesEv @ 166 NONAME
	_ZNK30MpCollectionTBoneListDataModel10metaObjectEv @ 167 NONAME
	_ZNK30MpCollectionTBoneListDataModel4dataERK11QModelIndexi @ 168 NONAME
	_ZNK30MpCollectionTBoneListDataModel8rowCountERK11QModelIndex @ 169 NONAME
	_ZTI10MpSongData @ 170 NONAME
	_ZTI14MpPlaybackData @ 171 NONAME
	_ZTI19MpMpxCollectionData @ 172 NONAME
	_ZTI21MpCollectionDataModel @ 173 NONAME
	_ZTI30MpCollectionTBoneListDataModel @ 174 NONAME
	_ZTV10MpSongData @ 175 NONAME
	_ZTV14MpPlaybackData @ 176 NONAME
	_ZTV19MpMpxCollectionData @ 177 NONAME
	_ZTV21MpCollectionDataModel @ 178 NONAME
	_ZTV30MpCollectionTBoneListDataModel @ 179 NONAME

