EXPORTS
	_ZN15MpEngineFactory11qt_metacallEN11QMetaObject4CallEiPPv @ 1 NONAME
	_ZN15MpEngineFactory11qt_metacastEPKc @ 2 NONAME
	_ZN15MpEngineFactory12sharedEngineEv @ 3 NONAME
	_ZN15MpEngineFactory16staticMetaObjectE @ 4 NONAME DATA 16
	_ZN15MpEngineFactory18createSharedEngineE4TUidN8MpEngine10EngineModeE @ 5 NONAME
	_ZN15MpEngineFactory19getStaticMetaObjectEv @ 6 NONAME
	_ZN15MpEngineFactory20createIsolatedEngineEN8MpEngine10EngineModeE @ 7 NONAME
	_ZN15MpEngineFactory5closeEv @ 8 NONAME
	_ZN15MpEngineFactory8instanceEv @ 9 NONAME
	_ZN15MpEngineFactoryC1Ev @ 10 NONAME
	_ZN15MpEngineFactoryC2Ev @ 11 NONAME
	_ZN15MpEngineFactoryD0Ev @ 12 NONAME
	_ZN15MpEngineFactoryD1Ev @ 13 NONAME
	_ZN15MpEngineFactoryD2Ev @ 14 NONAME
	_ZN8MpEngine10initializeE4TUidNS_10EngineModeE @ 15 NONAME
	_ZN8MpEngine10setBalanceEi @ 16 NONAME
	_ZN8MpEngine10setShuffleEb @ 17 NONAME
	_ZN8MpEngine10shuffleAllEv @ 18 NONAME
	_ZN8MpEngine10usbBlockedEb @ 19 NONAME
	_ZN8MpEngine11applyPresetEi @ 20 NONAME
	_ZN8MpEngine11deleteSongsER5QListIiE @ 21 NONAME
	_ZN8MpEngine11presetNamesEv @ 22 NONAME
	_ZN8MpEngine11previewItemEi @ 23 NONAME
	_ZN8MpEngine11qt_metacallEN11QMetaObject4CallEiPPv @ 24 NONAME
	_ZN8MpEngine11qt_metacastEPKc @ 25 NONAME
	_ZN8MpEngine11setLoudnessEb @ 26 NONAME
	_ZN8MpEngine11setPositionEi @ 27 NONAME
	_ZN8MpEngine11skipForwardEv @ 28 NONAME
	_ZN8MpEngine11stopSeekingEv @ 29 NONAME
	_ZN8MpEngine12activePresetEv @ 30 NONAME
	_ZN8MpEngine12playEmbeddedE7QString @ 31 NONAME
	_ZN8MpEngine12playEmbeddedERK14XQSharableFile @ 32 NONAME
	_ZN8MpEngine12playbackDataEv @ 33 NONAME
	_ZN8MpEngine12retrieveSongEv @ 34 NONAME
	_ZN8MpEngine12skipBackwardEv @ 35 NONAME
	_ZN8MpEngine12songsDeletedEb @ 36 NONAME
	_ZN8MpEngine13findPlaylistsER11QStringList @ 37 NONAME
	_ZN8MpEngine13playlistSavedEb @ 38 NONAME
	_ZN8MpEngine14collectionDataEv @ 39 NONAME
	_ZN8MpEngine14createPlaylistER7QStringR5QListIiEP19MpMpxCollectionData @ 40 NONAME
	_ZN8MpEngine14equalizerReadyEv @ 41 NONAME
	_ZN8MpEngine14findAlbumSongsEi @ 42 NONAME
	_ZN8MpEngine14handleUsbEventE12MpxUsbEvents @ 43 NONAME
	_ZN8MpEngine14libraryUpdatedEv @ 44 NONAME
	_ZN8MpEngine14openCollectionE18TCollectionContext @ 45 NONAME
	_ZN8MpEngine14playAlbumSongsEiiP19MpMpxCollectionData @ 46 NONAME
	_ZN8MpEngine14refreshLibraryEv @ 47 NONAME
	_ZN8MpEngine14renamePlaylistER7QString @ 48 NONAME
	_ZN8MpEngine14renamePlaylistER7QStringi @ 49 NONAME
	_ZN8MpEngine14saveToPlaylistEiR5QListIiE @ 50 NONAME
	_ZN8MpEngine15handleDiskEventE13MpxDiskEvents @ 51 NONAME
	_ZN8MpEngine15handleScanEndedEii @ 52 NONAME
	_ZN8MpEngine15reorderPlaylistEiiii @ 53 NONAME
	_ZN8MpEngine16disableEqualizerEv @ 54 NONAME
	_ZN8MpEngine16playlistsRenamedEb @ 55 NONAME
	_ZN8MpEngine16reopenCollectionEv @ 56 NONAME
	_ZN8MpEngine16startSeekForwardEv @ 57 NONAME
	_ZN8MpEngine16staticMetaObjectE @ 58 NONAME DATA 16
	_ZN8MpEngine17handleDeleteEndedEv @ 59 NONAME
	_ZN8MpEngine17handleScanStartedEv @ 60 NONAME
	_ZN8MpEngine17startSeekBackwardEv @ 61 NONAME
	_ZN8MpEngine17verifyUsbBlockingEb @ 62 NONAME
	_ZN8MpEngine18launchBlockingNoteEv @ 63 NONAME
	_ZN8MpEngine18openCollectionItemEi @ 64 NONAME
	_ZN8MpEngine19getStaticMetaObjectEv @ 65 NONAME
	_ZN8MpEngine19handleDeleteStartedEv @ 66 NONAME
	_ZN8MpEngine19setOutstandingPopupEP7HbPopup @ 67 NONAME
	_ZN8MpEngine20checkForSystemEventsEv @ 68 NONAME
	_ZN8MpEngine20handleEqualizerReadyEv @ 69 NONAME
	_ZN8MpEngine20handleUsbMtpEndEventEv @ 70 NONAME
	_ZN8MpEngine20libraryAboutToUpdateEv @ 71 NONAME
	_ZN8MpEngine21handleUsbMtpNotActiveEv @ 72 NONAME
	_ZN8MpEngine21saveToCurrentPlaylistER5QListIiEP19MpMpxCollectionData @ 73 NONAME
	_ZN8MpEngine22changeUsbBlockingStateENS_16UsbBlockingStateE @ 74 NONAME
	_ZN8MpEngine22handleUsbMtpStartEventEv @ 75 NONAME
	_ZN8MpEngine22openIsolatedCollectionE18TCollectionContext @ 76 NONAME
	_ZN8MpEngine24collectionPlaylistOpenedEv @ 77 NONAME
	_ZN8MpEngine24containerContentsChangedEv @ 78 NONAME
	_ZN8MpEngine24isolatedCollectionOpenedEP19MpMpxCollectionData @ 79 NONAME
	_ZN8MpEngine25releaseIsolatedCollectionEv @ 80 NONAME
	_ZN8MpEngine28handleOutstandingNoteClosingEv @ 81 NONAME
	_ZN8MpEngine28handleUsbMassStorageEndEventEv @ 82 NONAME
	_ZN8MpEngine30handleUsbMassStorageStartEventEv @ 83 NONAME
	_ZN8MpEngine4backEv @ 84 NONAME
	_ZN8MpEngine4stopEv @ 85 NONAME
	_ZN8MpEngine7balanceEv @ 86 NONAME
	_ZN8MpEngine8loudnessEv @ 87 NONAME
	_ZN8MpEngine8songDataEv @ 88 NONAME
	_ZN8MpEngine9playPauseEv @ 89 NONAME
	_ZN8MpEngine9setRepeatEb @ 90 NONAME
	_ZN8MpEngineC1Ev @ 91 NONAME
	_ZN8MpEngineC2Ev @ 92 NONAME
	_ZN8MpEngineD0Ev @ 93 NONAME
	_ZN8MpEngineD1Ev @ 94 NONAME
	_ZN8MpEngineD2Ev @ 95 NONAME
	_ZNK15MpEngineFactory10metaObjectEv @ 96 NONAME
	_ZNK8MpEngine10metaObjectEv @ 97 NONAME
	_ZTI15MpEngineFactory @ 98 NONAME
	_ZTI8MpEngine @ 99 NONAME
	_ZTV15MpEngineFactory @ 100 NONAME
	_ZTV8MpEngine @ 101 NONAME

