EXPORTS
	?DoHandleMediaL@CMPXCommonPlaybackViewImp@@MAEXABVCMPXMedia@@H@Z @ 1 NONAME ; void CMPXCommonPlaybackViewImp::DoHandleMediaL(class CMPXMedia const &, int)
	?DialogDismissedL@CMPXCommonPlaybackViewImp@@MAEXH@Z @ 2 NONAME ; void CMPXCommonPlaybackViewImp::DialogDismissedL(int)
	?SetProcessPriority@CMPXCommonPlaybackViewImp@@MAEXXZ @ 3 NONAME ; void CMPXCommonPlaybackViewImp::SetProcessPriority(void)
	?SetRepeatMode@CMPXCommonPlaybackViewContainer@@UAEXHH@Z @ 4 NONAME ; void CMPXCommonPlaybackViewContainer::SetRepeatMode(int, int)
	?CreateColorIconL@CMPXCommonPlaybackViewLayout@@IAEPAVCGulIcon@@PAVMAknsSkinInstance@@ABVTAknsItemID@@1HABVTDesC16@@HH@Z @ 5 NONAME ; class CGulIcon * CMPXCommonPlaybackViewLayout::CreateColorIconL(class MAknsSkinInstance *, class TAknsItemID const &, class TAknsItemID const &, int, class TDesC16 const &, int, int)
	?ConstructL@CMPXCommonPlaybackViewContainer@@UAEXABVTRect@@@Z @ 6 NONAME ; void CMPXCommonPlaybackViewContainer::ConstructL(class TRect const &)
	?UpdateToolbarL@CMPXCommonPlaybackViewImp@@IAEXXZ @ 7 NONAME ; void CMPXCommonPlaybackViewImp::UpdateToolbarL(void)
	?UpdateTimeIndicatorsL@CMPXCommonPlaybackViewContainer@@UAEXHH@Z @ 8 NONAME ; void CMPXCommonPlaybackViewContainer::UpdateTimeIndicatorsL(int, int)
	?DisplayConfirmionNoteL@CMPXCommonPlaybackViewImp@@MAEXH@Z @ 9 NONAME ; void CMPXCommonPlaybackViewImp::DisplayConfirmionNoteL(int)
	?LightStatusChanged@CMPXCommonPlaybackViewContainer@@UAEXHW4TLightStatus@CHWRMLight@@@Z @ 10 NONAME ; void CMPXCommonPlaybackViewContainer::LightStatusChanged(int, enum CHWRMLight::TLightStatus)
	?HandlePlaybackMessage@CMPXCommonPlaybackViewImp@@MAEXPAVCMPXMedia@@H@Z @ 11 NONAME ; void CMPXCommonPlaybackViewImp::HandlePlaybackMessage(class CMPXMedia *, int)
	?HandleSettingChange@CMPXCommonPlaybackViewImp@@MAEXABVTUid@@K@Z @ 12 NONAME ; void CMPXCommonPlaybackViewImp::HandleSettingChange(class TUid const &, unsigned long)
	?HandleForegroundEventL@CMPXCommonPlaybackViewImp@@MAEXH@Z @ 13 NONAME ; void CMPXCommonPlaybackViewImp::HandleForegroundEventL(int)
	?HandleErrorL@CMPXCommonPlaybackViewImp@@MAEXH@Z @ 14 NONAME ; void CMPXCommonPlaybackViewImp::HandleErrorL(int)
	?GetCurrentPlayerDetails@CMPXCommonPlaybackViewImp@@MAEXXZ @ 15 NONAME ; void CMPXCommonPlaybackViewImp::GetCurrentPlayerDetails(void)
	?UpdateDurationLabelL@CMPXCommonPlaybackViewContainer@@UAEXH@Z @ 16 NONAME ; void CMPXCommonPlaybackViewContainer::UpdateDurationLabelL(int)
	?DoHandleStateChangedL@CMPXCommonPlaybackViewImp@@MAEXW4TMPXPlaybackState@@H@Z @ 17 NONAME ; void CMPXCommonPlaybackViewImp::DoHandleStateChangedL(enum TMPXPlaybackState, int)
	?DisplayInfoNoteL@CMPXCommonPlaybackViewImp@@MAEXH@Z @ 18 NONAME ; void CMPXCommonPlaybackViewImp::DisplayInfoNoteL(int)
	?RequestMediaL@CMPXCommonPlaybackViewImp@@MAEXH@Z @ 19 NONAME ; void CMPXCommonPlaybackViewImp::RequestMediaL(int)
	?LaunchFileDetailsDialogL@CMPXCommonPlaybackViewImp@@MAEXXZ @ 20 NONAME ; void CMPXCommonPlaybackViewImp::LaunchFileDetailsDialogL(void)
	?HandleStatusPaneSizeChange@CMPXCommonPlaybackViewImp@@MAEXXZ @ 21 NONAME ; void CMPXCommonPlaybackViewImp::HandleStatusPaneSizeChange(void)
	?UpdateTrackInfoL@CMPXCommonPlaybackViewImp@@MAEXPBVCMPXMedia@@@Z @ 22 NONAME ; void CMPXCommonPlaybackViewImp::UpdateTrackInfoL(class CMPXMedia const *)
	?PrepareMediaForPlaylistLC@CMPXCommonPlaybackViewImp@@MAEPAVCMPXMedia@@ABV2@@Z @ 23 NONAME ; class CMPXMedia * CMPXCommonPlaybackViewImp::PrepareMediaForPlaylistLC(class CMPXMedia const &)
	?ExtractAlbumArtCompleted@CMPXCommonPlaybackViewContainer@@UAEXPAVCFbsBitmap@@H@Z @ 24 NONAME ; void CMPXCommonPlaybackViewContainer::ExtractAlbumArtCompleted(class CFbsBitmap *, int)
	?HandleViewActivation@CMPXCommonPlaybackViewImp@@MAEXABVTUid@@0@Z @ 25 NONAME ; void CMPXCommonPlaybackViewImp::HandleViewActivation(class TUid const &, class TUid const &)
	?IsCommandSupportedL@CMPXCommonPlaybackViewImp@@MAEHXZ @ 26 NONAME ; int CMPXCommonPlaybackViewImp::IsCommandSupportedL(void)
	?GetIndicatorIconMaskL@CMPXCommonPlaybackViewLayout@@UAEPAVCGulIcon@@W4TMPXPbvIndicator@@@Z @ 27 NONAME ; class CGulIcon * CMPXCommonPlaybackViewLayout::GetIndicatorIconMaskL(enum TMPXPbvIndicator)
	?GetButtonBitmapsL@CMPXCommonPlaybackViewLayout@@UAEXW4TMPXPbvButton@@HAAPAVCFbsBitmap@@1@Z @ 28 NONAME ; void CMPXCommonPlaybackViewLayout::GetButtonBitmapsL(enum TMPXPbvButton, int, class CFbsBitmap * &, class CFbsBitmap * &)
	?UpdateBackgroundSkinControlContext@CMPXCommonPlaybackViewContainer@@MAEXABVTRect@@@Z @ 29 NONAME ; void CMPXCommonPlaybackViewContainer::UpdateBackgroundSkinControlContext(class TRect const &)
	?HandleOpenL@CMPXCommonPlaybackViewImp@@MAEXABVCMPXCollectionPlaylist@@H@Z @ 30 NONAME ; void CMPXCommonPlaybackViewImp::HandleOpenL(class CMPXCollectionPlaylist const &, int)
	??1CMPXCommonPlaybackViewContainer@@UAE@XZ @ 31 NONAME ; CMPXCommonPlaybackViewContainer::~CMPXCommonPlaybackViewContainer(void)
	?SetRealAudioMode@CMPXCommonPlaybackViewContainer@@UAEXH@Z @ 32 NONAME ; void CMPXCommonPlaybackViewContainer::SetRealAudioMode(int)
	?DetermineLayoutVariant@CMPXCommonPlaybackViewLayout@@IAE?AW4TMPXPbvLayoutVariants@@XZ @ 33 NONAME ; enum TMPXPbvLayoutVariants CMPXCommonPlaybackViewLayout::DetermineLayoutVariant(void)
	?SetMode@CMPXCommonPlaybackViewContainer@@UAEXW4TMPXPbvPlaybackMode@@@Z @ 34 NONAME ; void CMPXCommonPlaybackViewContainer::SetMode(enum TMPXPbvPlaybackMode)
	?AddPlayersNamesToMenuL@CMPXCommonPlaybackViewImp@@MAEXAAVCEikMenuPane@@@Z @ 35 NONAME ; void CMPXCommonPlaybackViewImp::AddPlayersNamesToMenuL(class CEikMenuPane &)
	?DynInitMenuPaneL@CMPXCommonPlaybackViewImp@@MAEXHPAVCEikMenuPane@@@Z @ 36 NONAME ; void CMPXCommonPlaybackViewImp::DynInitMenuPaneL(int, class CEikMenuPane *)
	?HandlePropertyL@CMPXCommonPlaybackViewImp@@MAEXW4TMPXPlaybackProperty@@HH@Z @ 37 NONAME ; void CMPXCommonPlaybackViewImp::HandlePropertyL(enum TMPXPlaybackProperty, int, int)
	?SkipOnErrorL@CMPXCommonPlaybackViewImp@@MAEXHH@Z @ 38 NONAME ; void CMPXCommonPlaybackViewImp::SkipOnErrorL(int, int)
	?HandleOpenL@CMPXCommonPlaybackViewImp@@MAEXABVCMPXMedia@@HHH@Z @ 39 NONAME ; void CMPXCommonPlaybackViewImp::HandleOpenL(class CMPXMedia const &, int, int, int)
	?LayoutLabel@CMPXCommonPlaybackViewLayout@@UAEXPAVCEikLabel@@ABVTRect@@W4TMPXPbvTextIndicator@@HH@Z @ 40 NONAME ; void CMPXCommonPlaybackViewLayout::LayoutLabel(class CEikLabel *, class TRect const &, enum TMPXPbvTextIndicator, int, int)
	?RefreshProgressBar@CMPXCommonPlaybackViewContainer@@MAEXXZ @ 41 NONAME ; void CMPXCommonPlaybackViewContainer::RefreshProgressBar(void)
	?HandleLayoutChange@CMPXCommonPlaybackViewImp@@MAEXXZ @ 42 NONAME ; void CMPXCommonPlaybackViewImp::HandleLayoutChange(void)
	?CountComponentControls@CMPXCommonPlaybackViewContainer@@MBEHXZ @ 43 NONAME ; int CMPXCommonPlaybackViewContainer::CountComponentControls(void) const
	?DoHandlePropertyL@CMPXCommonPlaybackViewImp@@MAEXW4TMPXPlaybackProperty@@HH@Z @ 44 NONAME ; void CMPXCommonPlaybackViewImp::DoHandlePropertyL(enum TMPXPlaybackProperty, int, int)
	?ExtractAlbumArtStarted@CMPXCommonPlaybackViewContainer@@UAEXXZ @ 45 NONAME ; void CMPXCommonPlaybackViewContainer::ExtractAlbumArtStarted(void)
	?UpdateDownloadStateLabelL@CMPXCommonPlaybackViewImp@@MAEXXZ @ 46 NONAME ; void CMPXCommonPlaybackViewImp::UpdateDownloadStateLabelL(void)
	?SetFMTXMode@CMPXCommonPlaybackViewContainer@@MAEXH@Z @ 47 NONAME ; void CMPXCommonPlaybackViewContainer::SetFMTXMode(int)
	?ProcessCommandL@CMPXCommonPlaybackViewImp@@MAEXH@Z @ 48 NONAME ; void CMPXCommonPlaybackViewImp::ProcessCommandL(int)
	?LaunchMusicSettingsL@CMPXCommonPlaybackViewImp@@MAEXXZ @ 49 NONAME ; void CMPXCommonPlaybackViewImp::LaunchMusicSettingsL(void)
	?GetNewSongPosition@CMPXCommonPlaybackViewContainer@@UAEHXZ @ 50 NONAME ; int CMPXCommonPlaybackViewContainer::GetNewSongPosition(void)
	?UpdateMiddleSoftKeyDisplayL@CMPXCommonPlaybackViewImp@@IAEXXZ @ 51 NONAME ; void CMPXCommonPlaybackViewImp::UpdateMiddleSoftKeyDisplayL(void)
	?SizeChanged@CMPXCommonPlaybackViewContainer@@MAEXXZ @ 52 NONAME ; void CMPXCommonPlaybackViewContainer::SizeChanged(void)
	?HandleOperationCompleteL@CMPXCommonPlaybackViewImp@@MAEXW4TCHelperOperation@@HPAX@Z @ 53 NONAME ; void CMPXCommonPlaybackViewImp::HandleOperationCompleteL(enum TCHelperOperation, int, void *)
	?LaunchFMTransmitterL@CMPXCommonPlaybackViewImp@@MAEXXZ @ 54 NONAME ; void CMPXCommonPlaybackViewImp::LaunchFMTransmitterL(void)
	?UpdateViewL@CMPXCommonPlaybackViewImp@@MAEXXZ @ 55 NONAME ; void CMPXCommonPlaybackViewImp::UpdateViewL(void)
	?DrawIndicator@CMPXCommonPlaybackViewContainer@@MBEXAAVCWindowGc@@ABVTRect@@1PBVCGulIcon@@H@Z @ 56 NONAME ; void CMPXCommonPlaybackViewContainer::DrawIndicator(class CWindowGc &, class TRect const &, class TRect const &, class CGulIcon const *, int) const
	?FreeIcons@CMPXCommonPlaybackViewContainer@@IAEXXZ @ 57 NONAME ; void CMPXCommonPlaybackViewContainer::FreeIcons(void)
	?GetIndicatorVariantL@CMPXCommonPlaybackViewLayout@@IAE?AW4TMPXPbvLayoutVariants@@W4TMPXPbvIndicator@@@Z @ 58 NONAME ; enum TMPXPbvLayoutVariants CMPXCommonPlaybackViewLayout::GetIndicatorVariantL(enum TMPXPbvIndicator)
	?HandleSubPlayerNamesL@CMPXCommonPlaybackViewImp@@MAEXVTUid@@PBVMDesC16Array@@HH@Z @ 59 NONAME ; void CMPXCommonPlaybackViewImp::HandleSubPlayerNamesL(class TUid, class MDesC16Array const *, int, int)
	?UpdateLabelL@CMPXCommonPlaybackViewContainer@@UAEXW4TMPXPbvTextIndicator@@ABVTDesC16@@@Z @ 60 NONAME ; void CMPXCommonPlaybackViewContainer::UpdateLabelL(enum TMPXPbvTextIndicator, class TDesC16 const &)
	?DoDeactivate@CMPXCommonPlaybackViewImp@@MAEXXZ @ 61 NONAME ; void CMPXCommonPlaybackViewImp::DoDeactivate(void)
	?HandleCommandComplete@CMPXCommonPlaybackViewImp@@MAEXPAVCMPXMedia@@H@Z @ 62 NONAME ; void CMPXCommonPlaybackViewImp::HandleCommandComplete(class CMPXMedia *, int)
	?HandleButtonCommandL@CMPXCommonPlaybackViewContainer@@MAEXH@Z @ 63 NONAME ; void CMPXCommonPlaybackViewContainer::HandleButtonCommandL(int)
	?IsUpnpVisibleL@CMPXCommonPlaybackViewImp@@MAEHXZ @ 64 NONAME ; int CMPXCommonPlaybackViewImp::IsUpnpVisibleL(void)
	?OfferKeyEventL@CMPXCommonPlaybackViewContainer@@UAE?AW4TKeyResponse@@ABUTKeyEvent@@W4TEventCode@@@Z @ 65 NONAME ; enum TKeyResponse CMPXCommonPlaybackViewContainer::OfferKeyEventL(struct TKeyEvent const &, enum TEventCode)
	?SetRandomMode@CMPXCommonPlaybackViewContainer@@UAEXH@Z @ 66 NONAME ; void CMPXCommonPlaybackViewContainer::SetRandomMode(int)
	?HandleCollectionMessage@CMPXCommonPlaybackViewImp@@MAEXPAVCMPXMedia@@H@Z @ 67 NONAME ; void CMPXCommonPlaybackViewImp::HandleCollectionMessage(class CMPXMedia *, int)
	?ComponentControl@CMPXCommonPlaybackViewContainer@@MBEPAVCCoeControl@@H@Z @ 68 NONAME ; class CCoeControl * CMPXCommonPlaybackViewContainer::ComponentControl(int) const
	?UpdateTrackPosInPlaylistL@CMPXCommonPlaybackViewImp@@MAEXXZ @ 69 NONAME ; void CMPXCommonPlaybackViewImp::UpdateTrackPosInPlaylistL(void)
	?LaunchEqualizerL@CMPXCommonPlaybackViewImp@@MAEXXZ @ 70 NONAME ; void CMPXCommonPlaybackViewImp::LaunchEqualizerL(void)
	?HandleAllTracksInvalidL@CMPXCommonPlaybackViewImp@@MAEXXZ @ 71 NONAME ; void CMPXCommonPlaybackViewImp::HandleAllTracksInvalidL(void)
	?AddToNewPlaylistL@CMPXCommonPlaybackViewImp@@MAEXXZ @ 72 NONAME ; void CMPXCommonPlaybackViewImp::AddToNewPlaylistL(void)
	?IndicatorLayout@CMPXCommonPlaybackViewLayout@@UAE?AVTRect@@ABV2@W4TMPXPbvIndicator@@@Z @ 73 NONAME ; class TRect CMPXCommonPlaybackViewLayout::IndicatorLayout(class TRect const &, enum TMPXPbvIndicator)
	?UpdateTrackPlaybackPositionL@CMPXCommonPlaybackViewImp@@MAEXHH@Z @ 74 NONAME ; void CMPXCommonPlaybackViewImp::UpdateTrackPlaybackPositionL(int, int)
	?UpdateTitlePaneL@CMPXCommonPlaybackViewImp@@MAEXXZ @ 75 NONAME ; void CMPXCommonPlaybackViewImp::UpdateTitlePaneL(void)
	?HandlePointerEventL@CMPXCommonPlaybackViewContainer@@MAEXABUTPointerEvent@@@Z @ 76 NONAME ; void CMPXCommonPlaybackViewContainer::HandlePointerEventL(struct TPointerEvent const &)
	?DoActivateL@CMPXCommonPlaybackViewImp@@MAEXABVTVwsViewId@@VTUid@@ABVTDesC8@@@Z @ 77 NONAME ; void CMPXCommonPlaybackViewImp::DoActivateL(class TVwsViewId const &, class TUid, class TDesC8 const &)
	?SelectNewPlayerL@CMPXCommonPlaybackViewImp@@MAEXH@Z @ 78 NONAME ; void CMPXCommonPlaybackViewImp::SelectNewPlayerL(int)
	?DoHandlePlaybackMessageL@CMPXCommonPlaybackViewImp@@MAEXABVCMPXMedia@@@Z @ 79 NONAME ; void CMPXCommonPlaybackViewImp::DoHandlePlaybackMessageL(class CMPXMedia const &)
	?UpdatePlaybackStateL@CMPXCommonPlaybackViewImp@@MAEXW4TMPXPlaybackState@@@Z @ 80 NONAME ; void CMPXCommonPlaybackViewImp::UpdatePlaybackStateL(enum TMPXPlaybackState)
	?UpdateButtons@CMPXCommonPlaybackViewContainer@@UAEXW4TMPXPlaybackState@@@Z @ 81 NONAME ; void CMPXCommonPlaybackViewContainer::UpdateButtons(enum TMPXPlaybackState)
	?ButtonLayout@CMPXCommonPlaybackViewLayout@@UAE?AVTRect@@ABV2@H@Z @ 82 NONAME ; class TRect CMPXCommonPlaybackViewLayout::ButtonLayout(class TRect const &, int)
	?GetTextVariantL@CMPXCommonPlaybackViewLayout@@IAE?AW4TMPXPbvLayoutVariants@@W4TMPXPbvTextIndicator@@@Z @ 83 NONAME ; enum TMPXPbvLayoutVariants CMPXCommonPlaybackViewLayout::GetTextVariantL(enum TMPXPbvTextIndicator)
	?UpdateProgressBarGraphics@CMPXCommonPlaybackViewContainer@@MAEXXZ @ 84 NONAME ; void CMPXCommonPlaybackViewContainer::UpdateProgressBarGraphics(void)
	?UpdateFMTransmitterInfoL@CMPXCommonPlaybackViewImp@@MAEXH@Z @ 85 NONAME ; void CMPXCommonPlaybackViewImp::UpdateFMTransmitterInfoL(int)
	?HandleMediaL@CMPXCommonPlaybackViewImp@@MAEXABVCMPXMedia@@H@Z @ 86 NONAME ; void CMPXCommonPlaybackViewImp::HandleMediaL(class CMPXMedia const &, int)
	?UpdateAlbumArtL@CMPXCommonPlaybackViewImp@@MAEXPBVCMPXMedia@@@Z @ 87 NONAME ; void CMPXCommonPlaybackViewImp::UpdateAlbumArtL(class CMPXMedia const *)
	?HandlePSEvent@CMPXCommonPlaybackViewImp@@MAEXVTUid@@H@Z @ 88 NONAME ; void CMPXCommonPlaybackViewImp::HandlePSEvent(class TUid, int)
	?HandleViewUpdate@CMPXCommonPlaybackViewImp@@MAEXVTUid@@W4TViewUpdateEvent@MMPXViewActivationObserver@@HH@Z @ 89 NONAME ; void CMPXCommonPlaybackViewImp::HandleViewUpdate(class TUid, enum MMPXViewActivationObserver::TViewUpdateEvent, int, int)
	?RedrawRect@CMPXCommonPlaybackViewContainer@@MBEXABVTRect@@@Z @ 90 NONAME ; void CMPXCommonPlaybackViewContainer::RedrawRect(class TRect const &) const
	?HandleCommandL@CMPXCommonPlaybackViewImp@@MAEXH@Z @ 91 NONAME ; void CMPXCommonPlaybackViewImp::HandleCommandL(int)
	??1CMPXCommonPlaybackViewImp@@UAE@XZ @ 92 NONAME ; CMPXCommonPlaybackViewImp::~CMPXCommonPlaybackViewImp(void)
	?HandleForegroundEventL@CMPXCommonPlaybackViewContainer@@UAEXH@Z @ 93 NONAME ; void CMPXCommonPlaybackViewContainer::HandleForegroundEventL(int)
	?UpdateLabelColorsL@CMPXCommonPlaybackViewContainer@@MAEXXZ @ 94 NONAME ; void CMPXCommonPlaybackViewContainer::UpdateLabelColorsL(void)
	?IsEmbedded@CMPXCommonPlaybackViewImp@@MBEHXZ @ 95 NONAME ; int CMPXCommonPlaybackViewImp::IsEmbedded(void) const
	?SimpleEmbeddedMode@CMPXCommonPlaybackViewImp@@MBEHXZ @ 96 NONAME ; int CMPXCommonPlaybackViewImp::SimpleEmbeddedMode(void) const
	?UpdateLayout@CMPXCommonPlaybackViewContainer@@UAEXXZ @ 97 NONAME ; void CMPXCommonPlaybackViewContainer::UpdateLayout(void)
	?ButtonLayout@CMPXCommonPlaybackViewLayout@@UAE?AVTRect@@ABV2@@Z @ 98 NONAME ; class TRect CMPXCommonPlaybackViewLayout::ButtonLayout(class TRect const &)
	?HandleResourceChange@CMPXCommonPlaybackViewContainer@@UAEXH@Z @ 99 NONAME ; void CMPXCommonPlaybackViewContainer::HandleResourceChange(int)
	?AddPlayerNameToMenuL@CMPXCommonPlaybackViewImp@@MAEXAAVCEikMenuPane@@HAAVMMPXPlayerManager@@AAW4TMPXPlaybackPlayerType@@ABVTDesC16@@@Z @ 100 NONAME ; void CMPXCommonPlaybackViewImp::AddPlayerNameToMenuL(class CEikMenuPane &, int, class MMPXPlayerManager &, enum TMPXPlaybackPlayerType &, class TDesC16 const &)
	?Draw@CMPXCommonPlaybackViewContainer@@MBEXABVTRect@@@Z @ 101 NONAME ; void CMPXCommonPlaybackViewContainer::Draw(class TRect const &) const
	?ConstructL@CMPXCommonPlaybackViewImp@@MAEXXZ @ 102 NONAME ; void CMPXCommonPlaybackViewImp::ConstructL(void)
	?DoLayoutLabelL@CMPXCommonPlaybackViewLayout@@IAEXPAVCEikLabel@@ABVTRect@@HHH@Z @ 103 NONAME ; void CMPXCommonPlaybackViewLayout::DoLayoutLabelL(class CEikLabel *, class TRect const &, int, int, int)
	?HandleViewActivation@CMPXCommonPlaybackViewImp@@MAEXABVTVwsViewId@@0@Z @ 104 NONAME ; void CMPXCommonPlaybackViewImp::HandleViewActivation(class TVwsViewId const &, class TVwsViewId const &)
	?InitCommonLayoutL@CMPXCommonPlaybackViewLayout@@IAEXXZ @ 105 NONAME ; void CMPXCommonPlaybackViewLayout::InitCommonLayoutL(void)
	?AddToSavedPlaylistL@CMPXCommonPlaybackViewImp@@MAEXXZ @ 106 NONAME ; void CMPXCommonPlaybackViewImp::AddToSavedPlaylistL(void)
	?CreateLabelsL@CMPXCommonPlaybackViewContainer@@MAEXXZ @ 107 NONAME ; void CMPXCommonPlaybackViewContainer::CreateLabelsL(void)
	?CreateIconsL@CMPXCommonPlaybackViewContainer@@MAEXXZ @ 108 NONAME ; void CMPXCommonPlaybackViewContainer::CreateIconsL(void)
	?UpdateSoftkeyColors@CMPXCommonPlaybackViewContainer@@UAEXXZ @ 109 NONAME ; void CMPXCommonPlaybackViewContainer::UpdateSoftkeyColors(void)
	?StartMarquee@CMPXCommonPlaybackViewContainer@@UAEXW4TMPXPbvTextIndicator@@@Z @ 110 NONAME ; void CMPXCommonPlaybackViewContainer::StartMarquee(enum TMPXPbvTextIndicator)
	?HandleCollectionMediaL@CMPXCommonPlaybackViewImp@@MAEXABVCMPXMedia@@H@Z @ 111 NONAME ; void CMPXCommonPlaybackViewImp::HandleCollectionMediaL(class CMPXMedia const &, int)
	?GetHelpContext@CMPXCommonPlaybackViewContainer@@UBEXAAVTCoeHelpContext@@@Z @ 112 NONAME ; void CMPXCommonPlaybackViewContainer::GetHelpContext(class TCoeHelpContext &) const

