EXPORTS
	??1CMPXAlbumArtUtil@@UAE@XZ @ 1 NONAME ; CMPXAlbumArtUtil::~CMPXAlbumArtUtil(void)
	??1CMPXLbxExtendedFeatures@@UAE@XZ @ 2 NONAME ; CMPXLbxExtendedFeatures::~CMPXLbxExtendedFeatures(void)
	??1CMPXSaveHelper@@UAE@XZ @ 3 NONAME ; CMPXSaveHelper::~CMPXSaveHelper(void)
	?AddToSavedPlaylistL@CMPXCommonUiHelper@@QAEHABVCMPXMedia@@0PAVMMPXCHelperObserver@@PAVMProgressDialogCallback@@@Z @ 4 NONAME ; int CMPXCommonUiHelper::AddToSavedPlaylistL(class CMPXMedia const &, class CMPXMedia const &, class MMPXCHelperObserver *, class MProgressDialogCallback *)
	?AllowMove@MPXTlsHelper@@SAHXZ @ 5 NONAME ; int MPXTlsHelper::AllowMove(void)
	?AvailableDriveLC@CMPXCommonUiHelper@@QAEPAVHBufC16@@H@Z @ 6 NONAME ; class HBufC16 * CMPXCommonUiHelper::AvailableDriveLC(int)
	?CancelRequest@CMPXAlbumArtUtil@@QAEXXZ @ 7 NONAME ; void CMPXAlbumArtUtil::CancelRequest(void)
	?CreatePlaylistL@CMPXCommonUiHelper@@QAEHABVCMPXMedia@@PAVMMPXCHelperObserver@@PAVMProgressDialogCallback@@@Z @ 8 NONAME ; int CMPXCommonUiHelper::CreatePlaylistL(class CMPXMedia const &, class MMPXCHelperObserver *, class MProgressDialogCallback *)
	?DefaultDriveLC@CMPXCommonUiHelper@@QAEPAVHBufC16@@XZ @ 9 NONAME ; class HBufC16 * CMPXCommonUiHelper::DefaultDriveLC(void)
	?DismissWaitNoteL@CMPXCommonUiHelper@@QAEXXZ @ 10 NONAME ; void CMPXCommonUiHelper::DismissWaitNoteL(void)
	?DisplayConfirmNoteL@CMPXCommonUiHelper@@QAEXABVTDesC16@@@Z @ 11 NONAME ; void CMPXCommonUiHelper::DisplayConfirmNoteL(class TDesC16 const &)
	?DisplayConfirmNoteL@CMPXCommonUiHelper@@QAEXH@Z @ 12 NONAME ; void CMPXCommonUiHelper::DisplayConfirmNoteL(int)
	?DisplayInfoNoteL@CMPXCommonUiHelper@@QAEXABVTDesC16@@@Z @ 13 NONAME ; void CMPXCommonUiHelper::DisplayInfoNoteL(class TDesC16 const &)
	?DisplayInfoNoteL@CMPXCommonUiHelper@@QAEXH@Z @ 14 NONAME ; void CMPXCommonUiHelper::DisplayInfoNoteL(int)
	?DisplayableDurationInTextL@CMPXCommonUiHelper@@QAEPAVHBufC16@@_J@Z @ 15 NONAME ; class HBufC16 * CMPXCommonUiHelper::DisplayableDurationInTextL(long long)
	?DisplayableDurationL@CMPXCommonUiHelper@@QAEPAVHBufC16@@_JW4TMPXDuratDisplayMode@1@@Z @ 16 NONAME ; class HBufC16 * CMPXCommonUiHelper::DisplayableDurationL(long long, enum CMPXCommonUiHelper::TMPXDuratDisplayMode)
	?DoSetAsRingingToneL@CMPXCommonUiHelper@@QAEXABVCMPXMedia@@HH@Z @ 17 NONAME ; void CMPXCommonUiHelper::DoSetAsRingingToneL(class CMPXMedia const &, int, int)
	?EnableSpeedScrollL@CMPXLbxExtendedFeatures@@QAEXH@Z @ 18 NONAME ; void CMPXLbxExtendedFeatures::EnableSpeedScrollL(int)
	?ExitOptionHiddenL@CMPXCommonUiHelper@@QAEHXZ @ 19 NONAME ; int CMPXCommonUiHelper::ExitOptionHiddenL(void)
	?ExtractAlbumArtL@CMPXAlbumArtUtil@@QAEXABVCMPXMedia@@AAVMMPXAlbumArtUtilObserver@@ABVTSize@@W4TDisplayMode@@@Z @ 20 NONAME ; void CMPXAlbumArtUtil::ExtractAlbumArtL(class CMPXMedia const &, class MMPXAlbumArtUtilObserver &, class TSize const &, enum TDisplayMode)
	?FilePath@MPXTlsHelper@@SA?AV?$TBuf@$0BAA@@@XZ @ 21 NONAME ; class TBuf<256> MPXTlsHelper::FilePath(void)
	?FindPlaylistsL@CMPXCommonUiHelper@@QAEPAVCMPXMedia@@XZ @ 22 NONAME ; class CMPXMedia * CMPXCommonUiHelper::FindPlaylistsL(void)
	?GenerateTitleL@CMPXCommonUiHelper@@QAEPAVHBufC16@@W4TMPXGeneralCategory@@ABVTDesC16@@@Z @ 23 NONAME ; class HBufC16 * CMPXCommonUiHelper::GenerateTitleL(enum TMPXGeneralCategory, class TDesC16 const &)
	?HandleErrorL@CMPXCommonUiHelper@@QAEHHPBVCMPXMedia@@PAVRFile@@@Z @ 24 NONAME ; int CMPXCommonUiHelper::HandleErrorL(int, class CMPXMedia const *, class RFile *)
	?HandleLbxKeyEventL@CMPXLbxExtendedFeatures@@QAE?AW4TKeyResponse@@ABUTKeyEvent@@W4TEventCode@@@Z @ 25 NONAME ; enum TKeyResponse CMPXLbxExtendedFeatures::HandleLbxKeyEventL(struct TKeyEvent const &, enum TEventCode)
	?HostUid@MPXTlsHelper@@SA?AVTUid@@XZ @ 26 NONAME ; class TUid MPXTlsHelper::HostUid(void)
	?InitializeL@MPXTlsHelper@@SAXXZ @ 27 NONAME ; void MPXTlsHelper::InitializeL(void)
	?IsForegroundApplication@CMPXCommonUiHelper@@QAEHH@Z @ 28 NONAME ; int CMPXCommonUiHelper::IsForegroundApplication(int)
	?IsHostBrowserL@CMPXCommonUiHelper@@QAEHXZ @ 29 NONAME ; int CMPXCommonUiHelper::IsHostBrowserL(void)
	?IsHostMessagingBrowserL@CMPXCommonUiHelper@@QAEHXZ @ 30 NONAME ; int CMPXCommonUiHelper::IsHostMessagingBrowserL(void)
	?IsHostMessagingL@CMPXCommonUiHelper@@QAEHXZ @ 31 NONAME ; int CMPXCommonUiHelper::IsHostMessagingL(void)
	?IsHostPodcastingAppL@CMPXCommonUiHelper@@QAEHXZ @ 32 NONAME ; int CMPXCommonUiHelper::IsHostPodcastingAppL(void)
	?IsProfileOfflineModeL@CMPXCommonUiHelper@@QAEHXZ @ 33 NONAME ; int CMPXCommonUiHelper::IsProfileOfflineModeL(void)
	?LaunchMode@MPXTlsHelper@@SA?AW4TMPXLaunchMode@@XZ @ 34 NONAME ; enum TMPXLaunchMode MPXTlsHelper::LaunchMode(void)
	?LaunchRenameDialogL@CMPXCommonUiHelper@@QAEHABVTDesC16@@AAVTDes16@@0@Z @ 35 NONAME ; int CMPXCommonUiHelper::LaunchRenameDialogL(class TDesC16 const &, class TDes16 &, class TDesC16 const &)
	?MMCDriveNumber@CMPXCommonUiHelper@@SAHXZ @ 36 NONAME ; int CMPXCommonUiHelper::MMCDriveNumber(void)
	?NeedSave@MPXTlsHelper@@SAHXZ @ 37 NONAME ; int MPXTlsHelper::NeedSave(void)
	?NewL@CMPXAlbumArtUtil@@SAPAV1@XZ @ 38 NONAME ; class CMPXAlbumArtUtil * CMPXAlbumArtUtil::NewL(void)
	?NewL@CMPXCommonUiHelper@@SAPAV1@PAVMMPXCollectionUtility@@@Z @ 39 NONAME ; class CMPXCommonUiHelper * CMPXCommonUiHelper::NewL(class MMPXCollectionUtility *)
	?NewL@CMPXLbxExtendedFeatures@@SAPAV1@PAVCEikTextListBox@@H@Z @ 40 NONAME ; class CMPXLbxExtendedFeatures * CMPXLbxExtendedFeatures::NewL(class CEikTextListBox *, int)
	?NewL@CMPXSaveHelper@@SAPAV1@PAVMMPXSaveHelperObserver@@PAVMFileManObserver@@@Z @ 41 NONAME ; class CMPXSaveHelper * CMPXSaveHelper::NewL(class MMPXSaveHelperObserver *, class MFileManObserver *)
	?RemoveMiddleSoftKeyLabel@CMPXCommonUiHelper@@QAEXAAVCEikButtonGroupContainer@@@Z @ 42 NONAME ; void CMPXCommonUiHelper::RemoveMiddleSoftKeyLabel(class CEikButtonGroupContainer &)
	?SetAllowMove@MPXTlsHelper@@SAXH@Z @ 43 NONAME ; void MPXTlsHelper::SetAllowMove(int)
	?SetFilePath@MPXTlsHelper@@SAXABVTDesC16@@@Z @ 44 NONAME ; void MPXTlsHelper::SetFilePath(class TDesC16 const &)
	?SetHostUidL@MPXTlsHelper@@SAXABVTUid@@@Z @ 45 NONAME ; void MPXTlsHelper::SetHostUidL(class TUid const &)
	?SetLaunchModeL@MPXTlsHelper@@SAXW4TMPXLaunchMode@@@Z @ 46 NONAME ; void MPXTlsHelper::SetLaunchModeL(enum TMPXLaunchMode)
	?SetMiddleSoftKeyIconL@CMPXCommonUiHelper@@QAEXAAVCEikButtonGroupContainer@@PAVCFbsBitmap@@1@Z @ 47 NONAME ; void CMPXCommonUiHelper::SetMiddleSoftKeyIconL(class CEikButtonGroupContainer &, class CFbsBitmap *, class CFbsBitmap *)
	?SetMiddleSoftKeyLabelL@CMPXCommonUiHelper@@QAEXAAVCEikButtonGroupContainer@@HH@Z @ 48 NONAME ; void CMPXCommonUiHelper::SetMiddleSoftKeyLabelL(class CEikButtonGroupContainer &, int, int)
	?SetNeedSave@MPXTlsHelper@@SAXH@Z @ 49 NONAME ; void MPXTlsHelper::SetNeedSave(int)
	?SetStandAloneModePId@CMPXCommonUiHelper@@SAH_J@Z @ 50 NONAME ; int CMPXCommonUiHelper::SetStandAloneModePId(long long)
	?ShowWaitNoteL@CMPXCommonUiHelper@@QAEXAAVTDesC16@@HHPAVMProgressDialogCallback@@H@Z @ 51 NONAME ; void CMPXCommonUiHelper::ShowWaitNoteL(class TDesC16 &, int, int, class MProgressDialogCallback *, int)
	?SpeedNaviUpdating@CMPXLbxExtendedFeatures@@QAEXH@Z @ 52 NONAME ; void CMPXLbxExtendedFeatures::SpeedNaviUpdating(int)
	?StandAloneModePId@CMPXCommonUiHelper@@SA_JXZ @ 53 NONAME ; long long CMPXCommonUiHelper::StandAloneModePId(void)
	?StartCopyOperationL@CMPXSaveHelper@@QAEXAAVRFile@@ABVTDesC16@@HH@Z @ 54 NONAME ; void CMPXSaveHelper::StartCopyOperationL(class RFile &, class TDesC16 const &, int, int)
	?StartCopyOperationL@CMPXSaveHelper@@QAEXABVTDesC16@@0H@Z @ 55 NONAME ; void CMPXSaveHelper::StartCopyOperationL(class TDesC16 const &, class TDesC16 const &, int)
	?Uninitialize@MPXTlsHelper@@SAXXZ @ 56 NONAME ; void MPXTlsHelper::Uninitialize(void)
	?UnitConversionL@CMPXCommonUiHelper@@QAEPAVHBufC16@@_JH@Z @ 57 NONAME ; class HBufC16 * CMPXCommonUiHelper::UnitConversionL(long long, int)
	?CancelCollectionOperation@CMPXCommonUiHelper@@QAEXXZ @ 58 NONAME ; void CMPXCommonUiHelper::CancelCollectionOperation(void)

