EXPORTS
	_ZN25CMPXCommonPlaybackViewImp10ConstructLEv @ 1 NONAME
	_ZN25CMPXCommonPlaybackViewImp11DoActivateLERK10TVwsViewId4TUidRK6TDesC8 @ 2 NONAME
	_ZN25CMPXCommonPlaybackViewImp11HandleOpenLERK22CMPXCollectionPlaylisti @ 3 NONAME
	_ZN25CMPXCommonPlaybackViewImp11HandleOpenLERK9CMPXMediaiii @ 4 NONAME
	_ZN25CMPXCommonPlaybackViewImp11UpdateViewLEv @ 5 NONAME
	_ZN25CMPXCommonPlaybackViewImp12DoDeactivateEv @ 6 NONAME
	_ZN25CMPXCommonPlaybackViewImp12HandleErrorLEi @ 7 NONAME
	_ZN25CMPXCommonPlaybackViewImp12HandleMediaLERK9CMPXMediai @ 8 NONAME
	_ZN25CMPXCommonPlaybackViewImp12SkipOnErrorLEii @ 9 NONAME
	_ZN25CMPXCommonPlaybackViewImp13HandlePSEventE4TUidi @ 10 NONAME
	_ZN25CMPXCommonPlaybackViewImp13RequestMediaLEi @ 11 NONAME
	_ZN25CMPXCommonPlaybackViewImp14DoHandleMediaLERK9CMPXMediai @ 12 NONAME
	_ZN25CMPXCommonPlaybackViewImp14HandleCommandLEi @ 13 NONAME
	_ZN25CMPXCommonPlaybackViewImp14IsUpnpVisibleLEv @ 14 NONAME
	_ZN25CMPXCommonPlaybackViewImp14UpdateToolbarLEv @ 15 NONAME
	_ZN25CMPXCommonPlaybackViewImp15HandlePropertyLE20TMPXPlaybackPropertyii @ 16 NONAME
	_ZN25CMPXCommonPlaybackViewImp15ProcessCommandLEi @ 17 NONAME
	_ZN25CMPXCommonPlaybackViewImp15UpdateAlbumArtLEPK9CMPXMedia @ 18 NONAME
	_ZN25CMPXCommonPlaybackViewImp16DialogDismissedLEi @ 19 NONAME
	_ZN25CMPXCommonPlaybackViewImp16DisplayInfoNoteLEi @ 20 NONAME
	_ZN25CMPXCommonPlaybackViewImp16DynInitMenuPaneLEiP12CEikMenuPane @ 21 NONAME
	_ZN25CMPXCommonPlaybackViewImp16HandleViewUpdateE4TUidN26MMPXViewActivationObserver16TViewUpdateEventEii @ 22 NONAME
	_ZN25CMPXCommonPlaybackViewImp16LaunchEqualizerLEv @ 23 NONAME
	_ZN25CMPXCommonPlaybackViewImp16SelectNewPlayerLEi @ 24 NONAME
	_ZN25CMPXCommonPlaybackViewImp16UpdateTitlePaneLEv @ 25 NONAME
	_ZN25CMPXCommonPlaybackViewImp16UpdateTrackInfoLEPK9CMPXMedia @ 26 NONAME
	_ZN25CMPXCommonPlaybackViewImp17AddToNewPlaylistLEv @ 27 NONAME
	_ZN25CMPXCommonPlaybackViewImp17DoHandlePropertyLE20TMPXPlaybackPropertyii @ 28 NONAME
	_ZN25CMPXCommonPlaybackViewImp18HandleLayoutChangeEv @ 29 NONAME
	_ZN25CMPXCommonPlaybackViewImp18SetProcessPriorityEv @ 30 NONAME
	_ZN25CMPXCommonPlaybackViewImp19AddToSavedPlaylistLEv @ 31 NONAME
	_ZN25CMPXCommonPlaybackViewImp19HandleSettingChangeERK4TUidm @ 32 NONAME
	_ZN25CMPXCommonPlaybackViewImp19IsCommandSupportedLEv @ 33 NONAME
	_ZN25CMPXCommonPlaybackViewImp20AddPlayerNameToMenuLER12CEikMenuPaneiR17MMPXPlayerManagerR22TMPXPlaybackPlayerTypeRK7TDesC16 @ 34 NONAME
	_ZN25CMPXCommonPlaybackViewImp20HandleViewActivationERK10TVwsViewIdS2_ @ 35 NONAME
	_ZN25CMPXCommonPlaybackViewImp20HandleViewActivationERK4TUidS2_ @ 36 NONAME
	_ZN25CMPXCommonPlaybackViewImp20LaunchFMTransmitterLEv @ 37 NONAME
	_ZN25CMPXCommonPlaybackViewImp20LaunchMusicSettingsLEv @ 38 NONAME
	_ZN25CMPXCommonPlaybackViewImp20UpdatePlaybackStateLE17TMPXPlaybackState @ 39 NONAME
	_ZN25CMPXCommonPlaybackViewImp21DoHandleStateChangedLE17TMPXPlaybackStatei @ 40 NONAME
	_ZN25CMPXCommonPlaybackViewImp21HandleCommandCompleteEP9CMPXMediai @ 41 NONAME
	_ZN25CMPXCommonPlaybackViewImp21HandlePlaybackMessageEP9CMPXMediai @ 42 NONAME
	_ZN25CMPXCommonPlaybackViewImp21HandleSubPlayerNamesLE4TUidPK12MDesC16Arrayii @ 43 NONAME
	_ZN25CMPXCommonPlaybackViewImp22AddPlayersNamesToMenuLER12CEikMenuPane @ 44 NONAME
	_ZN25CMPXCommonPlaybackViewImp22DisplayConfirmionNoteLEi @ 45 NONAME
	_ZN25CMPXCommonPlaybackViewImp22HandleCollectionMediaLERK9CMPXMediai @ 46 NONAME
	_ZN25CMPXCommonPlaybackViewImp22HandleForegroundEventLEi @ 47 NONAME
	_ZN25CMPXCommonPlaybackViewImp23GetCurrentPlayerDetailsEv @ 48 NONAME
	_ZN25CMPXCommonPlaybackViewImp23HandleAllTracksInvalidLEv @ 49 NONAME
	_ZN25CMPXCommonPlaybackViewImp23HandleCollectionMessageEP9CMPXMediai @ 50 NONAME
	_ZN25CMPXCommonPlaybackViewImp24DoHandlePlaybackMessageLERK9CMPXMedia @ 51 NONAME
	_ZN25CMPXCommonPlaybackViewImp24HandleOperationCompleteLE17TCHelperOperationiPv @ 52 NONAME
	_ZN25CMPXCommonPlaybackViewImp24LaunchFileDetailsDialogLEv @ 53 NONAME
	_ZN25CMPXCommonPlaybackViewImp24UpdateFMTransmitterInfoLEi @ 54 NONAME
	_ZN25CMPXCommonPlaybackViewImp25PrepareMediaForPlaylistLCERK9CMPXMedia @ 55 NONAME
	_ZN25CMPXCommonPlaybackViewImp25UpdateDownloadStateLabelLEv @ 56 NONAME
	_ZN25CMPXCommonPlaybackViewImp25UpdateTrackPosInPlaylistLEv @ 57 NONAME
	_ZN25CMPXCommonPlaybackViewImp26HandleStatusPaneSizeChangeEv @ 58 NONAME
	_ZN25CMPXCommonPlaybackViewImp27UpdateMiddleSoftKeyDisplayLEv @ 59 NONAME
	_ZN25CMPXCommonPlaybackViewImp28UpdateTrackPlaybackPositionLEii @ 60 NONAME
	_ZN25CMPXCommonPlaybackViewImpD0Ev @ 61 NONAME
	_ZN25CMPXCommonPlaybackViewImpD1Ev @ 62 NONAME
	_ZN25CMPXCommonPlaybackViewImpD2Ev @ 63 NONAME
	_ZN28CMPXCommonPlaybackViewLayout11LayoutLabelEP9CEikLabelRK5TRect20TMPXPbvTextIndicatorii @ 64 NONAME
	_ZN28CMPXCommonPlaybackViewLayout12ButtonLayoutERK5TRect @ 65 NONAME
	_ZN28CMPXCommonPlaybackViewLayout12ButtonLayoutERK5TRecti @ 66 NONAME
	_ZN28CMPXCommonPlaybackViewLayout14DoLayoutLabelLEP9CEikLabelRK5TRectiii @ 67 NONAME
	_ZN28CMPXCommonPlaybackViewLayout15GetTextVariantLE20TMPXPbvTextIndicator @ 68 NONAME
	_ZN28CMPXCommonPlaybackViewLayout15IndicatorLayoutERK5TRect16TMPXPbvIndicator @ 69 NONAME
	_ZN28CMPXCommonPlaybackViewLayout16CreateColorIconLEP17MAknsSkinInstanceRK11TAknsItemIDS4_iRK7TDesC16ii @ 70 NONAME
	_ZN28CMPXCommonPlaybackViewLayout17GetButtonBitmapsLE13TMPXPbvButtoniRP10CFbsBitmapS3_ @ 71 NONAME
	_ZN28CMPXCommonPlaybackViewLayout17InitCommonLayoutLEv @ 72 NONAME
	_ZN28CMPXCommonPlaybackViewLayout20GetIndicatorVariantLE16TMPXPbvIndicator @ 73 NONAME
	_ZN28CMPXCommonPlaybackViewLayout21GetIndicatorIconMaskLE16TMPXPbvIndicator @ 74 NONAME
	_ZN28CMPXCommonPlaybackViewLayout22DetermineLayoutVariantEv @ 75 NONAME
	_ZN31CMPXCommonPlaybackViewContainer10ConstructLERK5TRect @ 76 NONAME
	_ZN31CMPXCommonPlaybackViewContainer11SetFMTXModeEi @ 77 NONAME
	_ZN31CMPXCommonPlaybackViewContainer11SizeChangedEv @ 78 NONAME
	_ZN31CMPXCommonPlaybackViewContainer12CreateIconsLEv @ 79 NONAME
	_ZN31CMPXCommonPlaybackViewContainer12StartMarqueeE20TMPXPbvTextIndicator @ 80 NONAME
	_ZN31CMPXCommonPlaybackViewContainer12UpdateLabelLE20TMPXPbvTextIndicatorRK7TDesC16 @ 81 NONAME
	_ZN31CMPXCommonPlaybackViewContainer12UpdateLayoutEv @ 82 NONAME
	_ZN31CMPXCommonPlaybackViewContainer13CreateLabelsLEv @ 83 NONAME
	_ZN31CMPXCommonPlaybackViewContainer13SetRandomModeEi @ 84 NONAME
	_ZN31CMPXCommonPlaybackViewContainer13SetRepeatModeEii @ 85 NONAME
	_ZN31CMPXCommonPlaybackViewContainer13UpdateButtonsE17TMPXPlaybackState @ 86 NONAME
	_ZN31CMPXCommonPlaybackViewContainer14OfferKeyEventLERK9TKeyEvent10TEventCode @ 87 NONAME
	_ZN31CMPXCommonPlaybackViewContainer16SetRealAudioModeEi @ 88 NONAME
	_ZN31CMPXCommonPlaybackViewContainer18GetNewSongPositionEv @ 89 NONAME
	_ZN31CMPXCommonPlaybackViewContainer18LightStatusChangedEiN10CHWRMLight12TLightStatusE @ 90 NONAME
	_ZN31CMPXCommonPlaybackViewContainer18RefreshProgressBarEv @ 91 NONAME
	_ZN31CMPXCommonPlaybackViewContainer18UpdateLabelColorsLEv @ 92 NONAME
	_ZN31CMPXCommonPlaybackViewContainer19HandlePointerEventLERK13TPointerEvent @ 93 NONAME
	_ZN31CMPXCommonPlaybackViewContainer19UpdateSoftkeyColorsEv @ 94 NONAME
	_ZN31CMPXCommonPlaybackViewContainer20HandleButtonCommandLEi @ 95 NONAME
	_ZN31CMPXCommonPlaybackViewContainer20HandleResourceChangeEi @ 96 NONAME
	_ZN31CMPXCommonPlaybackViewContainer20UpdateDurationLabelLEi @ 97 NONAME
	_ZN31CMPXCommonPlaybackViewContainer21UpdateTimeIndicatorsLEii @ 98 NONAME
	_ZN31CMPXCommonPlaybackViewContainer22ExtractAlbumArtStartedEv @ 99 NONAME
	_ZN31CMPXCommonPlaybackViewContainer22HandleForegroundEventLEi @ 100 NONAME
	_ZN31CMPXCommonPlaybackViewContainer24ExtractAlbumArtCompletedEP10CFbsBitmapi @ 101 NONAME
	_ZN31CMPXCommonPlaybackViewContainer25UpdateProgressBarGraphicsEv @ 102 NONAME
	_ZN31CMPXCommonPlaybackViewContainer34UpdateBackgroundSkinControlContextERK5TRect @ 103 NONAME
	_ZN31CMPXCommonPlaybackViewContainer7SetModeE19TMPXPbvPlaybackMode @ 104 NONAME
	_ZN31CMPXCommonPlaybackViewContainer9FreeIconsEv @ 105 NONAME
	_ZN31CMPXCommonPlaybackViewContainerD0Ev @ 106 NONAME
	_ZN31CMPXCommonPlaybackViewContainerD1Ev @ 107 NONAME
	_ZN31CMPXCommonPlaybackViewContainerD2Ev @ 108 NONAME
	_ZNK25CMPXCommonPlaybackViewImp10IsEmbeddedEv @ 109 NONAME
	_ZNK25CMPXCommonPlaybackViewImp18SimpleEmbeddedModeEv @ 110 NONAME
	_ZNK31CMPXCommonPlaybackViewContainer10RedrawRectERK5TRect @ 111 NONAME
	_ZNK31CMPXCommonPlaybackViewContainer13DrawIndicatorER9CWindowGcRK5TRectS4_PK8CGulIconi @ 112 NONAME
	_ZNK31CMPXCommonPlaybackViewContainer14GetHelpContextER15TCoeHelpContext @ 113 NONAME
	_ZNK31CMPXCommonPlaybackViewContainer16ComponentControlEi @ 114 NONAME
	_ZNK31CMPXCommonPlaybackViewContainer22CountComponentControlsEv @ 115 NONAME
	_ZNK31CMPXCommonPlaybackViewContainer4DrawERK5TRect @ 116 NONAME
	_ZTI25CMPXCommonPlaybackViewImp @ 117 NONAME
	_ZTI28CMPXCommonPlaybackViewLayout @ 118 NONAME
	_ZTI31CMPXCommonPlaybackViewContainer @ 119 NONAME
	_ZTV25CMPXCommonPlaybackViewImp @ 120 NONAME
	_ZTV28CMPXCommonPlaybackViewLayout @ 121 NONAME
	_ZTV31CMPXCommonPlaybackViewContainer @ 122 NONAME
	_ZThn100_N25CMPXCommonPlaybackViewImp20HandleViewActivationERK10TVwsViewIdS2_ @ 123 NONAME
	_ZThn108_N25CMPXCommonPlaybackViewImp24HandleOperationCompleteLE17TCHelperOperationiPv @ 124 NONAME
	_ZThn112_N25CMPXCommonPlaybackViewImp13HandlePSEventE4TUidi @ 125 NONAME
	_ZThn116_N25CMPXCommonPlaybackViewImp19HandleSettingChangeERK4TUidm @ 126 NONAME
	_ZThn120_N25CMPXCommonPlaybackViewImp16DialogDismissedLEi @ 127 NONAME
	_ZThn124_N25CMPXCommonPlaybackViewImp16HandleViewUpdateE4TUidN26MMPXViewActivationObserver16TViewUpdateEventEii @ 128 NONAME
	_ZThn124_N25CMPXCommonPlaybackViewImp20HandleViewActivationERK4TUidS2_ @ 129 NONAME
	_ZThn128_N25CMPXCommonPlaybackViewImp11HandleOpenLERK22CMPXCollectionPlaylisti @ 130 NONAME
	_ZThn128_N25CMPXCommonPlaybackViewImp11HandleOpenLERK9CMPXMediaiii @ 131 NONAME
	_ZThn128_N25CMPXCommonPlaybackViewImp21HandleCommandCompleteEP9CMPXMediai @ 132 NONAME
	_ZThn128_N25CMPXCommonPlaybackViewImp22HandleCollectionMediaLERK9CMPXMediai @ 133 NONAME
	_ZThn128_N25CMPXCommonPlaybackViewImp23HandleCollectionMessageEP9CMPXMediai @ 134 NONAME
	_ZThn12_N25CMPXCommonPlaybackViewImp15ProcessCommandLEi @ 135 NONAME
	_ZThn12_N25CMPXCommonPlaybackViewImp16DynInitMenuPaneLEiP12CEikMenuPane @ 136 NONAME
	_ZThn4_N28CMPXCommonPlaybackViewLayout11LayoutLabelEP9CEikLabelRK5TRect20TMPXPbvTextIndicatorii @ 137 NONAME
	_ZThn4_N28CMPXCommonPlaybackViewLayout12ButtonLayoutERK5TRect @ 138 NONAME
	_ZThn4_N28CMPXCommonPlaybackViewLayout12ButtonLayoutERK5TRecti @ 139 NONAME
	_ZThn4_N28CMPXCommonPlaybackViewLayout15IndicatorLayoutERK5TRect16TMPXPbvIndicator @ 140 NONAME
	_ZThn4_N28CMPXCommonPlaybackViewLayout17GetButtonBitmapsLE13TMPXPbvButtoniRP10CFbsBitmapS3_ @ 141 NONAME
	_ZThn4_N28CMPXCommonPlaybackViewLayout21GetIndicatorIconMaskLE16TMPXPbvIndicator @ 142 NONAME
	_ZThn52_N31CMPXCommonPlaybackViewContainer22ExtractAlbumArtStartedEv @ 143 NONAME
	_ZThn52_N31CMPXCommonPlaybackViewContainer24ExtractAlbumArtCompletedEP10CFbsBitmapi @ 144 NONAME
	_ZThn56_N31CMPXCommonPlaybackViewContainer20HandleButtonCommandLEi @ 145 NONAME
	_ZThn60_N31CMPXCommonPlaybackViewContainer18LightStatusChangedEiN10CHWRMLight12TLightStatusE @ 146 NONAME
	_ZThn80_N25CMPXCommonPlaybackViewImp21HandlePlaybackMessageEP9CMPXMediai @ 147 NONAME
	_ZThn84_N25CMPXCommonPlaybackViewImp12HandleMediaLERK9CMPXMediai @ 148 NONAME
	_ZThn84_N25CMPXCommonPlaybackViewImp15HandlePropertyLE20TMPXPlaybackPropertyii @ 149 NONAME
	_ZThn84_N25CMPXCommonPlaybackViewImp21HandleSubPlayerNamesLE4TUidPK12MDesC16Arrayii @ 150 NONAME
	_ZThn96_N25CMPXCommonPlaybackViewImp18HandleLayoutChangeEv @ 151 NONAME

